
bomb:     file format elf32-i386


Disassembly of section .init:

08048790 <_init>:
 8048790:	53                   	push   %ebx
 8048791:	83 ec 08             	sub    $0x8,%esp
 8048794:	e8 57 02 00 00       	call   80489f0 <__x86.get_pc_thunk.bx>
 8048799:	81 c3 67 48 00 00    	add    $0x4867,%ebx
 804879f:	8b 83 fc ff ff ff    	mov    -0x4(%ebx),%eax
 80487a5:	85 c0                	test   %eax,%eax
 80487a7:	74 05                	je     80487ae <_init+0x1e>
 80487a9:	e8 02 01 00 00       	call   80488b0 <__gmon_start__@plt>
 80487ae:	83 c4 08             	add    $0x8,%esp
 80487b1:	5b                   	pop    %ebx
 80487b2:	c3                   	ret    

Disassembly of section .plt:

080487c0 <read@plt-0x10>:
 80487c0:	ff 35 04 d0 04 08    	pushl  0x804d004
 80487c6:	ff 25 08 d0 04 08    	jmp    *0x804d008
 80487cc:	00 00                	add    %al,(%eax)
	...

080487d0 <read@plt>:
 80487d0:	ff 25 0c d0 04 08    	jmp    *0x804d00c
 80487d6:	68 00 00 00 00       	push   $0x0
 80487db:	e9 e0 ff ff ff       	jmp    80487c0 <_init+0x30>

080487e0 <fflush@plt>:
 80487e0:	ff 25 10 d0 04 08    	jmp    *0x804d010
 80487e6:	68 08 00 00 00       	push   $0x8
 80487eb:	e9 d0 ff ff ff       	jmp    80487c0 <_init+0x30>

080487f0 <fgets@plt>:
 80487f0:	ff 25 14 d0 04 08    	jmp    *0x804d014
 80487f6:	68 10 00 00 00       	push   $0x10
 80487fb:	e9 c0 ff ff ff       	jmp    80487c0 <_init+0x30>

08048800 <signal@plt>:
 8048800:	ff 25 18 d0 04 08    	jmp    *0x804d018
 8048806:	68 18 00 00 00       	push   $0x18
 804880b:	e9 b0 ff ff ff       	jmp    80487c0 <_init+0x30>

08048810 <sleep@plt>:
 8048810:	ff 25 1c d0 04 08    	jmp    *0x804d01c
 8048816:	68 20 00 00 00       	push   $0x20
 804881b:	e9 a0 ff ff ff       	jmp    80487c0 <_init+0x30>

08048820 <alarm@plt>:
 8048820:	ff 25 20 d0 04 08    	jmp    *0x804d020
 8048826:	68 28 00 00 00       	push   $0x28
 804882b:	e9 90 ff ff ff       	jmp    80487c0 <_init+0x30>

08048830 <__stack_chk_fail@plt>:
 8048830:	ff 25 24 d0 04 08    	jmp    *0x804d024
 8048836:	68 30 00 00 00       	push   $0x30
 804883b:	e9 80 ff ff ff       	jmp    80487c0 <_init+0x30>

08048840 <strcpy@plt>:
 8048840:	ff 25 28 d0 04 08    	jmp    *0x804d028
 8048846:	68 38 00 00 00       	push   $0x38
 804884b:	e9 70 ff ff ff       	jmp    80487c0 <_init+0x30>

08048850 <gethostname@plt>:
 8048850:	ff 25 2c d0 04 08    	jmp    *0x804d02c
 8048856:	68 40 00 00 00       	push   $0x40
 804885b:	e9 60 ff ff ff       	jmp    80487c0 <_init+0x30>

08048860 <getenv@plt>:
 8048860:	ff 25 30 d0 04 08    	jmp    *0x804d030
 8048866:	68 48 00 00 00       	push   $0x48
 804886b:	e9 50 ff ff ff       	jmp    80487c0 <_init+0x30>

08048870 <malloc@plt>:
 8048870:	ff 25 34 d0 04 08    	jmp    *0x804d034
 8048876:	68 50 00 00 00       	push   $0x50
 804887b:	e9 40 ff ff ff       	jmp    80487c0 <_init+0x30>

08048880 <puts@plt>:
 8048880:	ff 25 38 d0 04 08    	jmp    *0x804d038
 8048886:	68 58 00 00 00       	push   $0x58
 804888b:	e9 30 ff ff ff       	jmp    80487c0 <_init+0x30>

08048890 <__memmove_chk@plt>:
 8048890:	ff 25 3c d0 04 08    	jmp    *0x804d03c
 8048896:	68 60 00 00 00       	push   $0x60
 804889b:	e9 20 ff ff ff       	jmp    80487c0 <_init+0x30>

080488a0 <__memcpy_chk@plt>:
 80488a0:	ff 25 40 d0 04 08    	jmp    *0x804d040
 80488a6:	68 68 00 00 00       	push   $0x68
 80488ab:	e9 10 ff ff ff       	jmp    80487c0 <_init+0x30>

080488b0 <__gmon_start__@plt>:
 80488b0:	ff 25 44 d0 04 08    	jmp    *0x804d044
 80488b6:	68 70 00 00 00       	push   $0x70
 80488bb:	e9 00 ff ff ff       	jmp    80487c0 <_init+0x30>

080488c0 <exit@plt>:
 80488c0:	ff 25 48 d0 04 08    	jmp    *0x804d048
 80488c6:	68 78 00 00 00       	push   $0x78
 80488cb:	e9 f0 fe ff ff       	jmp    80487c0 <_init+0x30>

080488d0 <__libc_start_main@plt>:
 80488d0:	ff 25 4c d0 04 08    	jmp    *0x804d04c
 80488d6:	68 80 00 00 00       	push   $0x80
 80488db:	e9 e0 fe ff ff       	jmp    80487c0 <_init+0x30>

080488e0 <write@plt>:
 80488e0:	ff 25 50 d0 04 08    	jmp    *0x804d050
 80488e6:	68 88 00 00 00       	push   $0x88
 80488eb:	e9 d0 fe ff ff       	jmp    80487c0 <_init+0x30>

080488f0 <strcasecmp@plt>:
 80488f0:	ff 25 54 d0 04 08    	jmp    *0x804d054
 80488f6:	68 90 00 00 00       	push   $0x90
 80488fb:	e9 c0 fe ff ff       	jmp    80487c0 <_init+0x30>

08048900 <__isoc99_sscanf@plt>:
 8048900:	ff 25 58 d0 04 08    	jmp    *0x804d058
 8048906:	68 98 00 00 00       	push   $0x98
 804890b:	e9 b0 fe ff ff       	jmp    80487c0 <_init+0x30>

08048910 <fopen@plt>:
 8048910:	ff 25 5c d0 04 08    	jmp    *0x804d05c
 8048916:	68 a0 00 00 00       	push   $0xa0
 804891b:	e9 a0 fe ff ff       	jmp    80487c0 <_init+0x30>

08048920 <__errno_location@plt>:
 8048920:	ff 25 60 d0 04 08    	jmp    *0x804d060
 8048926:	68 a8 00 00 00       	push   $0xa8
 804892b:	e9 90 fe ff ff       	jmp    80487c0 <_init+0x30>

08048930 <__printf_chk@plt>:
 8048930:	ff 25 64 d0 04 08    	jmp    *0x804d064
 8048936:	68 b0 00 00 00       	push   $0xb0
 804893b:	e9 80 fe ff ff       	jmp    80487c0 <_init+0x30>

08048940 <socket@plt>:
 8048940:	ff 25 68 d0 04 08    	jmp    *0x804d068
 8048946:	68 b8 00 00 00       	push   $0xb8
 804894b:	e9 70 fe ff ff       	jmp    80487c0 <_init+0x30>

08048950 <__fprintf_chk@plt>:
 8048950:	ff 25 6c d0 04 08    	jmp    *0x804d06c
 8048956:	68 c0 00 00 00       	push   $0xc0
 804895b:	e9 60 fe ff ff       	jmp    80487c0 <_init+0x30>

08048960 <gethostbyname@plt>:
 8048960:	ff 25 70 d0 04 08    	jmp    *0x804d070
 8048966:	68 c8 00 00 00       	push   $0xc8
 804896b:	e9 50 fe ff ff       	jmp    80487c0 <_init+0x30>

08048970 <strtol@plt>:
 8048970:	ff 25 74 d0 04 08    	jmp    *0x804d074
 8048976:	68 d0 00 00 00       	push   $0xd0
 804897b:	e9 40 fe ff ff       	jmp    80487c0 <_init+0x30>

08048980 <connect@plt>:
 8048980:	ff 25 78 d0 04 08    	jmp    *0x804d078
 8048986:	68 d8 00 00 00       	push   $0xd8
 804898b:	e9 30 fe ff ff       	jmp    80487c0 <_init+0x30>

08048990 <close@plt>:
 8048990:	ff 25 7c d0 04 08    	jmp    *0x804d07c
 8048996:	68 e0 00 00 00       	push   $0xe0
 804899b:	e9 20 fe ff ff       	jmp    80487c0 <_init+0x30>

080489a0 <__ctype_b_loc@plt>:
 80489a0:	ff 25 80 d0 04 08    	jmp    *0x804d080
 80489a6:	68 e8 00 00 00       	push   $0xe8
 80489ab:	e9 10 fe ff ff       	jmp    80487c0 <_init+0x30>

080489b0 <__sprintf_chk@plt>:
 80489b0:	ff 25 84 d0 04 08    	jmp    *0x804d084
 80489b6:	68 f0 00 00 00       	push   $0xf0
 80489bb:	e9 00 fe ff ff       	jmp    80487c0 <_init+0x30>

Disassembly of section .text:

080489c0 <_start>:
 80489c0:	31 ed                	xor    %ebp,%ebp
 80489c2:	5e                   	pop    %esi
 80489c3:	89 e1                	mov    %esp,%ecx
 80489c5:	83 e4 f0             	and    $0xfffffff0,%esp
 80489c8:	50                   	push   %eax
 80489c9:	54                   	push   %esp
 80489ca:	52                   	push   %edx
 80489cb:	68 e0 a3 04 08       	push   $0x804a3e0
 80489d0:	68 70 a3 04 08       	push   $0x804a370
 80489d5:	51                   	push   %ecx
 80489d6:	56                   	push   %esi
 80489d7:	68 bd 8a 04 08       	push   $0x8048abd
 80489dc:	e8 ef fe ff ff       	call   80488d0 <__libc_start_main@plt>
 80489e1:	f4                   	hlt    
 80489e2:	66 90                	xchg   %ax,%ax
 80489e4:	66 90                	xchg   %ax,%ax
 80489e6:	66 90                	xchg   %ax,%ax
 80489e8:	66 90                	xchg   %ax,%ax
 80489ea:	66 90                	xchg   %ax,%ax
 80489ec:	66 90                	xchg   %ax,%ax
 80489ee:	66 90                	xchg   %ax,%ax

080489f0 <__x86.get_pc_thunk.bx>:
 80489f0:	8b 1c 24             	mov    (%esp),%ebx
 80489f3:	c3                   	ret    
 80489f4:	66 90                	xchg   %ax,%ax
 80489f6:	66 90                	xchg   %ax,%ax
 80489f8:	66 90                	xchg   %ax,%ax
 80489fa:	66 90                	xchg   %ax,%ax
 80489fc:	66 90                	xchg   %ax,%ax
 80489fe:	66 90                	xchg   %ax,%ax

08048a00 <deregister_tm_clones>:
 8048a00:	b8 e3 d7 04 08       	mov    $0x804d7e3,%eax
 8048a05:	2d e0 d7 04 08       	sub    $0x804d7e0,%eax
 8048a0a:	83 f8 06             	cmp    $0x6,%eax
 8048a0d:	77 01                	ja     8048a10 <deregister_tm_clones+0x10>
 8048a0f:	c3                   	ret    
 8048a10:	b8 00 00 00 00       	mov    $0x0,%eax
 8048a15:	85 c0                	test   %eax,%eax
 8048a17:	74 f6                	je     8048a0f <deregister_tm_clones+0xf>
 8048a19:	55                   	push   %ebp
 8048a1a:	89 e5                	mov    %esp,%ebp
 8048a1c:	83 ec 18             	sub    $0x18,%esp
 8048a1f:	c7 04 24 e0 d7 04 08 	movl   $0x804d7e0,(%esp)
 8048a26:	ff d0                	call   *%eax
 8048a28:	c9                   	leave  
 8048a29:	c3                   	ret    
 8048a2a:	8d b6 00 00 00 00    	lea    0x0(%esi),%esi

08048a30 <register_tm_clones>:
 8048a30:	b8 e0 d7 04 08       	mov    $0x804d7e0,%eax
 8048a35:	2d e0 d7 04 08       	sub    $0x804d7e0,%eax
 8048a3a:	c1 f8 02             	sar    $0x2,%eax
 8048a3d:	89 c2                	mov    %eax,%edx
 8048a3f:	c1 ea 1f             	shr    $0x1f,%edx
 8048a42:	01 d0                	add    %edx,%eax
 8048a44:	d1 f8                	sar    %eax
 8048a46:	75 01                	jne    8048a49 <register_tm_clones+0x19>
 8048a48:	c3                   	ret    
 8048a49:	ba 00 00 00 00       	mov    $0x0,%edx
 8048a4e:	85 d2                	test   %edx,%edx
 8048a50:	74 f6                	je     8048a48 <register_tm_clones+0x18>
 8048a52:	55                   	push   %ebp
 8048a53:	89 e5                	mov    %esp,%ebp
 8048a55:	83 ec 18             	sub    $0x18,%esp
 8048a58:	89 44 24 04          	mov    %eax,0x4(%esp)
 8048a5c:	c7 04 24 e0 d7 04 08 	movl   $0x804d7e0,(%esp)
 8048a63:	ff d2                	call   *%edx
 8048a65:	c9                   	leave  
 8048a66:	c3                   	ret    
 8048a67:	89 f6                	mov    %esi,%esi
 8048a69:	8d bc 27 00 00 00 00 	lea    0x0(%edi,%eiz,1),%edi

08048a70 <__do_global_dtors_aux>:
 8048a70:	80 3d 04 d8 04 08 00 	cmpb   $0x0,0x804d804
 8048a77:	75 13                	jne    8048a8c <__do_global_dtors_aux+0x1c>
 8048a79:	55                   	push   %ebp
 8048a7a:	89 e5                	mov    %esp,%ebp
 8048a7c:	83 ec 08             	sub    $0x8,%esp
 8048a7f:	e8 7c ff ff ff       	call   8048a00 <deregister_tm_clones>
 8048a84:	c6 05 04 d8 04 08 01 	movb   $0x1,0x804d804
 8048a8b:	c9                   	leave  
 8048a8c:	f3 c3                	repz ret 
 8048a8e:	66 90                	xchg   %ax,%ax

08048a90 <frame_dummy>:
 8048a90:	a1 10 cf 04 08       	mov    0x804cf10,%eax
 8048a95:	85 c0                	test   %eax,%eax
 8048a97:	74 1f                	je     8048ab8 <frame_dummy+0x28>
 8048a99:	b8 00 00 00 00       	mov    $0x0,%eax
 8048a9e:	85 c0                	test   %eax,%eax
 8048aa0:	74 16                	je     8048ab8 <frame_dummy+0x28>
 8048aa2:	55                   	push   %ebp
 8048aa3:	89 e5                	mov    %esp,%ebp
 8048aa5:	83 ec 18             	sub    $0x18,%esp
 8048aa8:	c7 04 24 10 cf 04 08 	movl   $0x804cf10,(%esp)
 8048aaf:	ff d0                	call   *%eax
 8048ab1:	c9                   	leave  
 8048ab2:	e9 79 ff ff ff       	jmp    8048a30 <register_tm_clones>
 8048ab7:	90                   	nop
 8048ab8:	e9 73 ff ff ff       	jmp    8048a30 <register_tm_clones>

08048abd <main>:
 8048abd:	55                   	push   %ebp
 8048abe:	89 e5                	mov    %esp,%ebp
 8048ac0:	53                   	push   %ebx
 8048ac1:	83 e4 f0             	and    $0xfffffff0,%esp
 8048ac4:	83 ec 10             	sub    $0x10,%esp
 8048ac7:	8b 45 08             	mov    0x8(%ebp),%eax
 8048aca:	8b 5d 0c             	mov    0xc(%ebp),%ebx
 8048acd:	83 f8 01             	cmp    $0x1,%eax
 8048ad0:	75 0c                	jne    8048ade <main+0x21>
 8048ad2:	a1 e4 d7 04 08       	mov    0x804d7e4,%eax
 8048ad7:	a3 0c d8 04 08       	mov    %eax,0x804d80c
 8048adc:	eb 74                	jmp    8048b52 <main+0x95>
 8048ade:	83 f8 02             	cmp    $0x2,%eax
 8048ae1:	75 49                	jne    8048b2c <main+0x6f>
 8048ae3:	c7 44 24 04 00 a4 04 	movl   $0x804a400,0x4(%esp)
 8048aea:	08 
 8048aeb:	8b 43 04             	mov    0x4(%ebx),%eax
 8048aee:	89 04 24             	mov    %eax,(%esp)
 8048af1:	e8 1a fe ff ff       	call   8048910 <fopen@plt>
 8048af6:	a3 0c d8 04 08       	mov    %eax,0x804d80c
 8048afb:	85 c0                	test   %eax,%eax
 8048afd:	75 53                	jne    8048b52 <main+0x95>
 8048aff:	8b 43 04             	mov    0x4(%ebx),%eax
 8048b02:	89 44 24 0c          	mov    %eax,0xc(%esp)
 8048b06:	8b 03                	mov    (%ebx),%eax
 8048b08:	89 44 24 08          	mov    %eax,0x8(%esp)
 8048b0c:	c7 44 24 04 02 a4 04 	movl   $0x804a402,0x4(%esp)
 8048b13:	08 
 8048b14:	c7 04 24 01 00 00 00 	movl   $0x1,(%esp)
 8048b1b:	e8 10 fe ff ff       	call   8048930 <__printf_chk@plt>
 8048b20:	c7 04 24 08 00 00 00 	movl   $0x8,(%esp)
 8048b27:	e8 94 fd ff ff       	call   80488c0 <exit@plt>
 8048b2c:	8b 03                	mov    (%ebx),%eax
 8048b2e:	89 44 24 08          	mov    %eax,0x8(%esp)
 8048b32:	c7 44 24 04 1f a4 04 	movl   $0x804a41f,0x4(%esp)
 8048b39:	08 
 8048b3a:	c7 04 24 01 00 00 00 	movl   $0x1,(%esp)
 8048b41:	e8 ea fd ff ff       	call   8048930 <__printf_chk@plt>
 8048b46:	c7 04 24 08 00 00 00 	movl   $0x8,(%esp)
 8048b4d:	e8 6e fd ff ff       	call   80488c0 <exit@plt>
 8048b52:	e8 8f 07 00 00       	call   80492e6 <initialize_bomb>
 8048b57:	c7 04 24 90 a4 04 08 	movl   $0x804a490,(%esp)
 8048b5e:	e8 1d fd ff ff       	call   8048880 <puts@plt>
 8048b63:	c7 04 24 cc a4 04 08 	movl   $0x804a4cc,(%esp)
 8048b6a:	e8 11 fd ff ff       	call   8048880 <puts@plt>
 8048b6f:	e8 90 0a 00 00       	call   8049604 <read_line>
 8048b74:	89 04 24             	mov    %eax,(%esp)
 8048b77:	e8 04 01 00 00       	call   8048c80 <phase_1>
 8048b7c:	e8 7d 0b 00 00       	call   80496fe <phase_defused>
 8048b81:	c7 04 24 f8 a4 04 08 	movl   $0x804a4f8,(%esp)
 8048b88:	e8 f3 fc ff ff       	call   8048880 <puts@plt>
 8048b8d:	e8 72 0a 00 00       	call   8049604 <read_line>
 8048b92:	89 04 24             	mov    %eax,(%esp)
 8048b95:	e8 2a 01 00 00       	call   8048cc4 <phase_2>
 8048b9a:	e8 5f 0b 00 00       	call   80496fe <phase_defused>
 8048b9f:	c7 04 24 39 a4 04 08 	movl   $0x804a439,(%esp)
 8048ba6:	e8 d5 fc ff ff       	call   8048880 <puts@plt>
 8048bab:	e8 54 0a 00 00       	call   8049604 <read_line>
 8048bb0:	89 04 24             	mov    %eax,(%esp)
 8048bb3:	e8 30 01 00 00       	call   8048ce8 <phase_3>
 8048bb8:	e8 41 0b 00 00       	call   80496fe <phase_defused>
 8048bbd:	c7 04 24 57 a4 04 08 	movl   $0x804a457,(%esp)
 8048bc4:	e8 b7 fc ff ff       	call   8048880 <puts@plt>
 8048bc9:	e8 36 0a 00 00       	call   8049604 <read_line>
 8048bce:	89 04 24             	mov    %eax,(%esp)
 8048bd1:	e8 8b 01 00 00       	call   8048d61 <phase_4>
 8048bd6:	e8 23 0b 00 00       	call   80496fe <phase_defused>
 8048bdb:	c7 04 24 24 a5 04 08 	movl   $0x804a524,(%esp)
 8048be2:	e8 99 fc ff ff       	call   8048880 <puts@plt>
 8048be7:	e8 18 0a 00 00       	call   8049604 <read_line>
 8048bec:	89 04 24             	mov    %eax,(%esp)
 8048bef:	e8 bd 01 00 00       	call   8048db1 <phase_5>
 8048bf4:	e8 05 0b 00 00       	call   80496fe <phase_defused>
 8048bf9:	c7 04 24 68 a4 04 08 	movl   $0x804a468,(%esp)
 8048c00:	e8 7b fc ff ff       	call   8048880 <puts@plt>
 8048c05:	e8 fa 09 00 00       	call   8049604 <read_line>
 8048c0a:	89 04 24             	mov    %eax,(%esp)
 8048c0d:	e8 52 03 00 00       	call   8048f64 <phase_6>
 8048c12:	e8 e7 0a 00 00       	call   80496fe <phase_defused>
 8048c17:	c7 04 24 48 a5 04 08 	movl   $0x804a548,(%esp)
 8048c1e:	e8 5d fc ff ff       	call   8048880 <puts@plt>
 8048c23:	e8 dc 09 00 00       	call   8049604 <read_line>
 8048c28:	89 04 24             	mov    %eax,(%esp)
 8048c2b:	e8 9d 03 00 00       	call   8048fcd <phase_7>
 8048c30:	e8 c9 0a 00 00       	call   80496fe <phase_defused>
 8048c35:	c7 04 24 68 a5 04 08 	movl   $0x804a568,(%esp)
 8048c3c:	e8 3f fc ff ff       	call   8048880 <puts@plt>
 8048c41:	e8 be 09 00 00       	call   8049604 <read_line>
 8048c46:	89 04 24             	mov    %eax,(%esp)
 8048c49:	e8 03 04 00 00       	call   8049051 <phase_8>
 8048c4e:	e8 ab 0a 00 00       	call   80496fe <phase_defused>
 8048c53:	c7 04 24 86 a4 04 08 	movl   $0x804a486,(%esp)
 8048c5a:	e8 21 fc ff ff       	call   8048880 <puts@plt>
 8048c5f:	e8 a0 09 00 00       	call   8049604 <read_line>
 8048c64:	89 04 24             	mov    %eax,(%esp)
 8048c67:	e8 09 05 00 00       	call   8049175 <phase_9>
 8048c6c:	e8 8d 0a 00 00       	call   80496fe <phase_defused>
 8048c71:	b8 00 00 00 00       	mov    $0x0,%eax
 8048c76:	8b 5d fc             	mov    -0x4(%ebp),%ebx
 8048c79:	c9                   	leave  
 8048c7a:	c3                   	ret    
 8048c7b:	66 90                	xchg   %ax,%ax
 8048c7d:	66 90                	xchg   %ax,%ax
 8048c7f:	90                   	nop

08048c80 <phase_1>:
 8048c80:	83 ec 2c             	sub    $0x2c,%esp
 8048c83:	c7 44 24 1c 00 00 00 	movl   $0x0,0x1c(%esp)
 8048c8a:	00 
 8048c8b:	8d 44 24 1c          	lea    0x1c(%esp),%eax
 8048c8f:	89 44 24 08          	mov    %eax,0x8(%esp)
 8048c93:	c7 44 24 04 8d a5 04 	movl   $0x804a58d,0x4(%esp)
 8048c9a:	08 
 8048c9b:	8b 44 24 30          	mov    0x30(%esp),%eax
 8048c9f:	89 04 24             	mov    %eax,(%esp)
 8048ca2:	e8 59 fc ff ff       	call   8048900 <__isoc99_sscanf@plt>
 8048ca7:	83 f8 01             	cmp    $0x1,%eax
 8048caa:	74 05                	je     8048cb1 <phase_1+0x31>
 8048cac:	e8 c4 08 00 00       	call   8049575 <explode_bomb>
 8048cb1:	81 7c 24 1c 88 03 00 	cmpl   $0x388,0x1c(%esp)
 8048cb8:	00 
 8048cb9:	74 05                	je     8048cc0 <phase_1+0x40>
 8048cbb:	e8 b5 08 00 00       	call   8049575 <explode_bomb>
 8048cc0:	83 c4 2c             	add    $0x2c,%esp
 8048cc3:	c3                   	ret    

08048cc4 <phase_2>:
 8048cc4:	83 ec 1c             	sub    $0x1c,%esp
 8048cc7:	c7 44 24 04 98 a5 04 	movl   $0x804a598,0x4(%esp)
 8048cce:	08 
 8048ccf:	8b 44 24 20          	mov    0x20(%esp),%eax
 8048cd3:	89 04 24             	mov    %eax,(%esp)
 8048cd6:	e8 9f 05 00 00       	call   804927a <strings_not_equal>
 8048cdb:	85 c0                	test   %eax,%eax
 8048cdd:	74 05                	je     8048ce4 <phase_2+0x20>
 8048cdf:	e8 91 08 00 00       	call   8049575 <explode_bomb>
 8048ce4:	83 c4 1c             	add    $0x1c,%esp
 8048ce7:	c3                   	ret    

08048ce8 <phase_3>:
 8048ce8:	83 ec 1c             	sub    $0x1c,%esp
 8048ceb:	c7 04 24 c4 a5 04 08 	movl   $0x804a5c4,(%esp)
 8048cf2:	e8 64 05 00 00       	call   804925b <string_length>
 8048cf7:	83 c0 01             	add    $0x1,%eax
 8048cfa:	89 04 24             	mov    %eax,(%esp)
 8048cfd:	e8 6e fb ff ff       	call   8048870 <malloc@plt>
 8048d02:	c7 00 49 20 61 6d    	movl   $0x6d612049,(%eax)
 8048d08:	c7 40 04 20 6a 75 73 	movl   $0x73756a20,0x4(%eax)
 8048d0f:	c7 40 08 74 20 61 20 	movl   $0x20612074,0x8(%eax)
 8048d16:	c7 40 0c 72 65 6e 65 	movl   $0x656e6572,0xc(%eax)
 8048d1d:	c7 40 10 67 61 64 65 	movl   $0x65646167,0x10(%eax)
 8048d24:	c7 40 14 20 68 6f 63 	movl   $0x636f6820,0x14(%eax)
 8048d2b:	c7 40 18 6b 65 79 20 	movl   $0x2079656b,0x18(%eax)
 8048d32:	c7 40 1c 6d 6f 6d 2e 	movl   $0x2e6d6f6d,0x1c(%eax)
 8048d39:	c6 40 20 00          	movb   $0x0,0x20(%eax)
 8048d3d:	c6 40 0b 63          	movb   $0x63,0xb(%eax)
 8048d41:	89 44 24 04          	mov    %eax,0x4(%esp)
 8048d45:	8b 44 24 20          	mov    0x20(%esp),%eax
 8048d49:	89 04 24             	mov    %eax,(%esp)
 8048d4c:	e8 29 05 00 00       	call   804927a <strings_not_equal>
 8048d51:	85 c0                	test   %eax,%eax
 8048d53:	74 05                	je     8048d5a <phase_3+0x72>
 8048d55:	e8 1b 08 00 00       	call   8049575 <explode_bomb>
 8048d5a:	83 c4 1c             	add    $0x1c,%esp
 8048d5d:	8d 76 00             	lea    0x0(%esi),%esi
 8048d60:	c3                   	ret    

08048d61 <phase_4>:
 8048d61:	53                   	push   %ebx
 8048d62:	83 ec 38             	sub    $0x38,%esp
 8048d65:	8d 44 24 18          	lea    0x18(%esp),%eax
 8048d69:	89 44 24 04          	mov    %eax,0x4(%esp)
 8048d6d:	8b 44 24 40          	mov    0x40(%esp),%eax
 8048d71:	89 04 24             	mov    %eax,(%esp)
 8048d74:	e8 3b 08 00 00       	call   80495b4 <read_six_numbers>
 8048d79:	83 7c 24 18 00       	cmpl   $0x0,0x18(%esp)
 8048d7e:	79 23                	jns    8048da3 <phase_4+0x42>
 8048d80:	e8 f0 07 00 00       	call   8049575 <explode_bomb>
 8048d85:	eb 1c                	jmp    8048da3 <phase_4+0x42>

#loop body 
 8048d87:	8d 04 9b             	lea    (%ebx,%ebx,4),%eax
 8048d8a:	03 44 9c 14          	add    0x14(%esp,%ebx,4),%eax
 8048d8e:	39 44 9c 18          	cmp    %eax,0x18(%esp,%ebx,4)
 8048d92:	74 05                	je     8048d99 <phase_4+0x38>
 8048d94:	e8 dc 07 00 00       	call   8049575 <explode_bomb>

#loop increment and terminating condition
 8048d99:	83 c3 01             	add    $0x1,%ebx
 8048d9c:	83 fb 06             	cmp    $0x6,%ebx
 8048d9f:	75 e6                	jne    8048d87 <phase_4+0x26>
 8048da1:	eb 07                	jmp    8048daa <phase_4+0x49>
 8048da3:	bb 01 00 00 00       	mov    $0x1,%ebx
 8048da8:	eb dd                	jmp    8048d87 <phase_4+0x26>

#end
 8048daa:	83 c4 38             	add    $0x38,%esp
 8048dad:	5b                   	pop    %ebx
 8048dae:	66 90                	xchg   %ax,%ax
 8048db0:	c3                   	ret    

08048db1 <phase_5>:
 8048db1:	83 ec 3c             	sub    $0x3c,%esp
 8048db4:	8d 44 24 2c          	lea    0x2c(%esp),%eax
 8048db8:	89 44 24 10          	mov    %eax,0x10(%esp)
 8048dbc:	8d 44 24 27          	lea    0x27(%esp),%eax
 8048dc0:	89 44 24 0c          	mov    %eax,0xc(%esp)
 8048dc4:	8d 44 24 28          	lea    0x28(%esp),%eax
 8048dc8:	89 44 24 08          	mov    %eax,0x8(%esp)
 8048dcc:	c7 44 24 04 87 a5 04 	movl   $0x804a587,0x4(%esp)
 8048dd3:	08 
 8048dd4:	8b 44 24 40          	mov    0x40(%esp),%eax
 8048dd8:	89 04 24             	mov    %eax,(%esp)
 8048ddb:	e8 20 fb ff ff       	call   8048900 <__isoc99_sscanf@plt>
 8048de0:	83 f8 02             	cmp    $0x2,%eax
 8048de3:	7f 05                	jg     8048dea <phase_5+0x39>
 8048de5:	e8 8b 07 00 00       	call   8049575 <explode_bomb>
 8048dea:	83 7c 24 28 07       	cmpl   $0x7,0x28(%esp)				#value must be <= 7 && >= 0
 8048def:	0f 87 f9 00 00 00    	ja     8048eee <phase_5+0x13d>
 8048df5:	8b 44 24 28          	mov    0x28(%esp),%eax
 8048df9:	ff 24 85 e8 a5 04 08 	jmp    *0x804a5e8(,%eax,4)
 8048e00:	b8 64 00 00 00       	mov    $0x64,%eax
 8048e05:	81 7c 24 2c 78 01 00 	cmpl   $0x178,0x2c(%esp)				#value must be 376
 8048e0c:	00 
 8048e0d:	0f 84 e5 00 00 00    	je     8048ef8 <phase_5+0x147>
 8048e13:	e8 5d 07 00 00       	call   8049575 <explode_bomb>
 8048e18:	b8 64 00 00 00       	mov    $0x64,%eax
 8048e1d:	e9 d6 00 00 00       	jmp    8048ef8 <phase_5+0x147>
 8048e22:	b8 78 00 00 00       	mov    $0x78,%eax
 8048e27:	81 7c 24 2c ac 00 00 	cmpl   $0xac,0x2c(%esp)
 8048e2e:	00 
 8048e2f:	0f 84 c3 00 00 00    	je     8048ef8 <phase_5+0x147>
 8048e35:	e8 3b 07 00 00       	call   8049575 <explode_bomb>
 8048e3a:	b8 78 00 00 00       	mov    $0x78,%eax
 8048e3f:	e9 b4 00 00 00       	jmp    8048ef8 <phase_5+0x147>
 8048e44:	b8 6a 00 00 00       	mov    $0x6a,%eax
 8048e49:	81 7c 24 2c d3 03 00 	cmpl   $0x3d3,0x2c(%esp)
 8048e50:	00 
 8048e51:	0f 84 a1 00 00 00    	je     8048ef8 <phase_5+0x147>
 8048e57:	e8 19 07 00 00       	call   8049575 <explode_bomb>
 8048e5c:	b8 6a 00 00 00       	mov    $0x6a,%eax
 8048e61:	e9 92 00 00 00       	jmp    8048ef8 <phase_5+0x147>
 8048e66:	b8 78 00 00 00       	mov    $0x78,%eax
 8048e6b:	83 7c 24 2c 51       	cmpl   $0x51,0x2c(%esp)
 8048e70:	0f 84 82 00 00 00    	je     8048ef8 <phase_5+0x147>
 8048e76:	e8 fa 06 00 00       	call   8049575 <explode_bomb>
 8048e7b:	b8 78 00 00 00       	mov    $0x78,%eax
 8048e80:	eb 76                	jmp    8048ef8 <phase_5+0x147>
 8048e82:	b8 63 00 00 00       	mov    $0x63,%eax
 8048e87:	81 7c 24 2c 07 03 00 	cmpl   $0x307,0x2c(%esp)
 8048e8e:	00 
 8048e8f:	74 67                	je     8048ef8 <phase_5+0x147>
 8048e91:	e8 df 06 00 00       	call   8049575 <explode_bomb>
 8048e96:	b8 63 00 00 00       	mov    $0x63,%eax
 8048e9b:	eb 5b                	jmp    8048ef8 <phase_5+0x147>
 8048e9d:	b8 6d 00 00 00       	mov    $0x6d,%eax
 8048ea2:	81 7c 24 2c e9 00 00 	cmpl   $0xe9,0x2c(%esp)
 8048ea9:	00 
 8048eaa:	74 4c                	je     8048ef8 <phase_5+0x147>
 8048eac:	e8 c4 06 00 00       	call   8049575 <explode_bomb>
 8048eb1:	b8 6d 00 00 00       	mov    $0x6d,%eax
 8048eb6:	eb 40                	jmp    8048ef8 <phase_5+0x147>
 8048eb8:	b8 71 00 00 00       	mov    $0x71,%eax
 8048ebd:	81 7c 24 2c e3 00 00 	cmpl   $0xe3,0x2c(%esp)
 8048ec4:	00 
 8048ec5:	74 31                	je     8048ef8 <phase_5+0x147>
 8048ec7:	e8 a9 06 00 00       	call   8049575 <explode_bomb>
 8048ecc:	b8 71 00 00 00       	mov    $0x71,%eax
 8048ed1:	eb 25                	jmp    8048ef8 <phase_5+0x147>
 8048ed3:	b8 76 00 00 00       	mov    $0x76,%eax
 8048ed8:	81 7c 24 2c bd 01 00 	cmpl   $0x1bd,0x2c(%esp)
 8048edf:	00 
 8048ee0:	74 16                	je     8048ef8 <phase_5+0x147>
 8048ee2:	e8 8e 06 00 00       	call   8049575 <explode_bomb>
 8048ee7:	b8 76 00 00 00       	mov    $0x76,%eax
 8048eec:	eb 0a                	jmp    8048ef8 <phase_5+0x147>
 8048eee:	e8 82 06 00 00       	call   8049575 <explode_bomb>
 8048ef3:	b8 69 00 00 00       	mov    $0x69,%eax
 8048ef8:	3a 44 24 27          	cmp    0x27(%esp),%al
 8048efc:	74 05                	je     8048f03 <phase_5+0x152>
 8048efe:	e8 72 06 00 00       	call   8049575 <explode_bomb>
 8048f03:	83 c4 3c             	add    $0x3c,%esp
 8048f06:	c3                   	ret    

08048f07 <func6>:
 8048f07:	56                   	push   %esi
 8048f08:	53                   	push   %ebx
 8048f09:	83 ec 14             	sub    $0x14,%esp
 8048f0c:	8b 54 24 20          	mov    0x20(%esp),%edx
 8048f10:	8b 44 24 24          	mov    0x24(%esp),%eax
 8048f14:	8b 74 24 28          	mov    0x28(%esp),%esi
 8048f18:	89 f1                	mov    %esi,%ecx
 8048f1a:	29 c1                	sub    %eax,%ecx
 8048f1c:	89 cb                	mov    %ecx,%ebx
 8048f1e:	c1 eb 1f             	shr    $0x1f,%ebx
 8048f21:	01 d9                	add    %ebx,%ecx
 8048f23:	d1 f9                	sar    %ecx
 8048f25:	8d 1c 01             	lea    (%ecx,%eax,1),%ebx
 8048f28:	39 d3                	cmp    %edx,%ebx
 8048f2a:	7e 17                	jle    8048f43 <func6+0x3c>
 8048f2c:	8d 4b ff             	lea    -0x1(%ebx),%ecx
 8048f2f:	89 4c 24 08          	mov    %ecx,0x8(%esp)
 8048f33:	89 44 24 04          	mov    %eax,0x4(%esp)
 8048f37:	89 14 24             	mov    %edx,(%esp)
 8048f3a:	e8 c8 ff ff ff       	call   8048f07 <func6>
 8048f3f:	01 d8                	add    %ebx,%eax
 8048f41:	eb 1b                	jmp    8048f5e <func6+0x57>
 8048f43:	89 d8                	mov    %ebx,%eax
 8048f45:	39 d3                	cmp    %edx,%ebx
 8048f47:	7d 15                	jge    8048f5e <func6+0x57>
 8048f49:	89 74 24 08          	mov    %esi,0x8(%esp)
 8048f4d:	8d 43 01             	lea    0x1(%ebx),%eax
 8048f50:	89 44 24 04          	mov    %eax,0x4(%esp)
 8048f54:	89 14 24             	mov    %edx,(%esp)
 8048f57:	e8 ab ff ff ff       	call   8048f07 <func6>
 8048f5c:	01 d8                	add    %ebx,%eax
 8048f5e:	83 c4 14             	add    $0x14,%esp
 8048f61:	5b                   	pop    %ebx
 8048f62:	5e                   	pop    %esi
 8048f63:	c3                   	ret    

08048f64 <phase_6>:
 8048f64:	83 ec 2c             	sub    $0x2c,%esp
 8048f67:	8d 44 24 1c          	lea    0x1c(%esp),%eax
 8048f6b:	89 44 24 0c          	mov    %eax,0xc(%esp)
 8048f6f:	8d 44 24 18          	lea    0x18(%esp),%eax
 8048f73:	89 44 24 08          	mov    %eax,0x8(%esp)
 8048f77:	c7 44 24 04 f9 a7 04 	movl   $0x804a7f9,0x4(%esp)
 8048f7e:	08 
 8048f7f:	8b 44 24 30          	mov    0x30(%esp),%eax
 8048f83:	89 04 24             	mov    %eax,(%esp)
 8048f86:	e8 75 f9 ff ff       	call   8048900 <__isoc99_sscanf@plt>
 8048f8b:	83 f8 02             	cmp    $0x2,%eax
 8048f8e:	75 07                	jne    8048f97 <phase_6+0x33>
 8048f90:	83 7c 24 18 0e       	cmpl   $0xe,0x18(%esp)
 8048f95:	76 05                	jbe    8048f9c <phase_6+0x38>
 8048f97:	e8 d9 05 00 00       	call   8049575 <explode_bomb>
 8048f9c:	c7 44 24 08 0e 00 00 	movl   $0xe,0x8(%esp)
 8048fa3:	00 
 8048fa4:	c7 44 24 04 00 00 00 	movl   $0x0,0x4(%esp)
 8048fab:	00 
 8048fac:	8b 44 24 18          	mov    0x18(%esp),%eax
 8048fb0:	89 04 24             	mov    %eax,(%esp)
 8048fb3:	e8 4f ff ff ff       	call   8048f07 <func6>
 8048fb8:	83 f8 0f             	cmp    $0xf,%eax
 8048fbb:	75 07                	jne    8048fc4 <phase_6+0x60>
 8048fbd:	83 7c 24 1c 0f       	cmpl   $0xf,0x1c(%esp)
 8048fc2:	74 05                	je     8048fc9 <phase_6+0x65>
 8048fc4:	e8 ac 05 00 00       	call   8049575 <explode_bomb>
 8048fc9:	83 c4 2c             	add    $0x2c,%esp
 8048fcc:	c3                   	ret    

08048fcd <phase_7>:
 8048fcd:	53                   	push   %ebx
 8048fce:	83 ec 28             	sub    $0x28,%esp
 8048fd1:	8b 5c 24 30          	mov    0x30(%esp),%ebx
 8048fd5:	65 a1 14 00 00 00    	mov    %gs:0x14,%eax
 8048fdb:	89 44 24 1c          	mov    %eax,0x1c(%esp)
 8048fdf:	31 c0                	xor    %eax,%eax
 8048fe1:	89 1c 24             	mov    %ebx,(%esp)
 8048fe4:	e8 72 02 00 00       	call   804925b <string_length>
 8048fe9:	83 f8 06             	cmp    $0x6,%eax
 8048fec:	74 45                	je     8049033 <phase_7+0x66>
 8048fee:	e8 82 05 00 00       	call   8049575 <explode_bomb>
 8048ff3:	eb 3e                	jmp    8049033 <phase_7+0x66>
 8048ff5:	0f b6 14 03          	movzbl (%ebx,%eax,1),%edx
 8048ff9:	83 e2 0f             	and    $0xf,%edx
 8048ffc:	0f b6 92 08 a6 04 08 	movzbl 0x804a608(%edx),%edx
 8049003:	88 54 04 15          	mov    %dl,0x15(%esp,%eax,1)
 8049007:	83 c0 01             	add    $0x1,%eax
 804900a:	83 f8 06             	cmp    $0x6,%eax
 804900d:	75 e6                	jne    8048ff5 <phase_7+0x28>
 804900f:	c6 44 24 1b 00       	movb   $0x0,0x1b(%esp)
 8049014:	c7 44 24 04 90 a5 04 	movl   $0x804a590,0x4(%esp)
 804901b:	08 
 804901c:	8d 44 24 15          	lea    0x15(%esp),%eax
 8049020:	89 04 24             	mov    %eax,(%esp)
 8049023:	e8 52 02 00 00       	call   804927a <strings_not_equal>
 8049028:	85 c0                	test   %eax,%eax
 804902a:	74 0e                	je     804903a <phase_7+0x6d>
 804902c:	e8 44 05 00 00       	call   8049575 <explode_bomb>
 8049031:	eb 07                	jmp    804903a <phase_7+0x6d>
 8049033:	b8 00 00 00 00       	mov    $0x0,%eax
 8049038:	eb bb                	jmp    8048ff5 <phase_7+0x28>
 804903a:	8b 44 24 1c          	mov    0x1c(%esp),%eax
 804903e:	65 33 05 14 00 00 00 	xor    %gs:0x14,%eax
 8049045:	74 05                	je     804904c <phase_7+0x7f>
 8049047:	e8 e4 f7 ff ff       	call   8048830 <__stack_chk_fail@plt>
 804904c:	83 c4 28             	add    $0x28,%esp
 804904f:	5b                   	pop    %ebx
 8049050:	c3                   	ret    

08049051 <phase_8>:
 8049051:	56                   	push   %esi
 8049052:	53                   	push   %ebx
 8049053:	83 ec 44             	sub    $0x44,%esp
 8049056:	8d 44 24 10          	lea    0x10(%esp),%eax
 804905a:	89 44 24 04          	mov    %eax,0x4(%esp)
 804905e:	8b 44 24 50          	mov    0x50(%esp),%eax
 8049062:	89 04 24             	mov    %eax,(%esp)
 8049065:	e8 4a 05 00 00       	call   80495b4 <read_six_numbers>
 804906a:	be 00 00 00 00       	mov    $0x0,%esi
 804906f:	8b 44 b4 10          	mov    0x10(%esp,%esi,4),%eax
 8049073:	83 e8 01             	sub    $0x1,%eax
 8049076:	83 f8 05             	cmp    $0x5,%eax
 8049079:	76 05                	jbe    8049080 <phase_8+0x2f>
 804907b:	e8 f5 04 00 00       	call   8049575 <explode_bomb>
 8049080:	83 c6 01             	add    $0x1,%esi
 8049083:	83 fe 06             	cmp    $0x6,%esi
 8049086:	75 07                	jne    804908f <phase_8+0x3e>
 8049088:	bb 00 00 00 00       	mov    $0x0,%ebx
 804908d:	eb 38                	jmp    80490c7 <phase_8+0x76>
 804908f:	89 f3                	mov    %esi,%ebx
 8049091:	8b 44 9c 10          	mov    0x10(%esp,%ebx,4),%eax
 8049095:	39 44 b4 0c          	cmp    %eax,0xc(%esp,%esi,4)
 8049099:	75 05                	jne    80490a0 <phase_8+0x4f>
 804909b:	e8 d5 04 00 00       	call   8049575 <explode_bomb>
 80490a0:	83 c3 01             	add    $0x1,%ebx
 80490a3:	83 fb 05             	cmp    $0x5,%ebx
 80490a6:	7e e9                	jle    8049091 <phase_8+0x40>
 80490a8:	eb c5                	jmp    804906f <phase_8+0x1e>
 80490aa:	8b 52 08             	mov    0x8(%edx),%edx
 80490ad:	83 c0 01             	add    $0x1,%eax
 80490b0:	39 c8                	cmp    %ecx,%eax
 80490b2:	75 f6                	jne    80490aa <phase_8+0x59>
 80490b4:	eb 05                	jmp    80490bb <phase_8+0x6a>
 80490b6:	ba 74 d1 04 08       	mov    $0x804d174,%edx
 80490bb:	89 54 b4 28          	mov    %edx,0x28(%esp,%esi,4)
 80490bf:	83 c3 01             	add    $0x1,%ebx
 80490c2:	83 fb 06             	cmp    $0x6,%ebx
 80490c5:	74 17                	je     80490de <phase_8+0x8d>
 80490c7:	89 de                	mov    %ebx,%esi
 80490c9:	8b 4c 9c 10          	mov    0x10(%esp,%ebx,4),%ecx
 80490cd:	83 f9 01             	cmp    $0x1,%ecx
 80490d0:	7e e4                	jle    80490b6 <phase_8+0x65>
 80490d2:	b8 01 00 00 00       	mov    $0x1,%eax
 80490d7:	ba 74 d1 04 08       	mov    $0x804d174,%edx
 80490dc:	eb cc                	jmp    80490aa <phase_8+0x59>
 80490de:	8b 5c 24 28          	mov    0x28(%esp),%ebx
 80490e2:	8d 44 24 2c          	lea    0x2c(%esp),%eax
 80490e6:	8d 74 24 40          	lea    0x40(%esp),%esi
 80490ea:	89 d9                	mov    %ebx,%ecx
 80490ec:	8b 10                	mov    (%eax),%edx
 80490ee:	89 51 08             	mov    %edx,0x8(%ecx)
 80490f1:	83 c0 04             	add    $0x4,%eax
 80490f4:	39 f0                	cmp    %esi,%eax
 80490f6:	74 04                	je     80490fc <phase_8+0xab>
 80490f8:	89 d1                	mov    %edx,%ecx
 80490fa:	eb f0                	jmp    80490ec <phase_8+0x9b>
 80490fc:	c7 42 08 00 00 00 00 	movl   $0x0,0x8(%edx)
 8049103:	be 05 00 00 00       	mov    $0x5,%esi
 8049108:	8b 43 08             	mov    0x8(%ebx),%eax
 804910b:	8b 00                	mov    (%eax),%eax
 804910d:	39 03                	cmp    %eax,(%ebx)
 804910f:	7e 05                	jle    8049116 <phase_8+0xc5>
 8049111:	e8 5f 04 00 00       	call   8049575 <explode_bomb>
 8049116:	8b 5b 08             	mov    0x8(%ebx),%ebx
 8049119:	83 ee 01             	sub    $0x1,%esi
 804911c:	75 ea                	jne    8049108 <phase_8+0xb7>
 804911e:	83 c4 44             	add    $0x44,%esp
 8049121:	5b                   	pop    %ebx
 8049122:	5e                   	pop    %esi
 8049123:	c3                   	ret    

08049124 <fun9>:
 8049124:	53                   	push   %ebx
 8049125:	83 ec 18             	sub    $0x18,%esp
 8049128:	8b 54 24 20          	mov    0x20(%esp),%edx
 804912c:	8b 4c 24 24          	mov    0x24(%esp),%ecx
 8049130:	85 d2                	test   %edx,%edx
 8049132:	74 37                	je     804916b <fun9+0x47>
 8049134:	8b 1a                	mov    (%edx),%ebx
 8049136:	39 cb                	cmp    %ecx,%ebx
 8049138:	7e 13                	jle    804914d <fun9+0x29>
 804913a:	89 4c 24 04          	mov    %ecx,0x4(%esp)
 804913e:	8b 42 04             	mov    0x4(%edx),%eax
 8049141:	89 04 24             	mov    %eax,(%esp)
 8049144:	e8 db ff ff ff       	call   8049124 <fun9>
 8049149:	01 c0                	add    %eax,%eax
 804914b:	eb 23                	jmp    8049170 <fun9+0x4c>
 804914d:	b8 00 00 00 00       	mov    $0x0,%eax
 8049152:	39 cb                	cmp    %ecx,%ebx
 8049154:	74 1a                	je     8049170 <fun9+0x4c>
 8049156:	89 4c 24 04          	mov    %ecx,0x4(%esp)
 804915a:	8b 42 08             	mov    0x8(%edx),%eax
 804915d:	89 04 24             	mov    %eax,(%esp)
 8049160:	e8 bf ff ff ff       	call   8049124 <fun9>
 8049165:	8d 44 00 01          	lea    0x1(%eax,%eax,1),%eax
 8049169:	eb 05                	jmp    8049170 <fun9+0x4c>
 804916b:	b8 ff ff ff ff       	mov    $0xffffffff,%eax
 8049170:	83 c4 18             	add    $0x18,%esp
 8049173:	5b                   	pop    %ebx
 8049174:	c3                   	ret    

08049175 <phase_9>:
 8049175:	53                   	push   %ebx
 8049176:	83 ec 18             	sub    $0x18,%esp
 8049179:	c7 44 24 08 0a 00 00 	movl   $0xa,0x8(%esp)
 8049180:	00 
 8049181:	c7 44 24 04 00 00 00 	movl   $0x0,0x4(%esp)
 8049188:	00 
 8049189:	8b 44 24 20          	mov    0x20(%esp),%eax
 804918d:	89 04 24             	mov    %eax,(%esp)
 8049190:	e8 db f7 ff ff       	call   8048970 <strtol@plt>
 8049195:	89 c3                	mov    %eax,%ebx
 8049197:	8d 40 ff             	lea    -0x1(%eax),%eax
 804919a:	3d e8 03 00 00       	cmp    $0x3e8,%eax
 804919f:	76 05                	jbe    80491a6 <phase_9+0x31>
 80491a1:	e8 cf 03 00 00       	call   8049575 <explode_bomb>
 80491a6:	89 5c 24 04          	mov    %ebx,0x4(%esp)
 80491aa:	c7 04 24 c0 d0 04 08 	movl   $0x804d0c0,(%esp)
 80491b1:	e8 6e ff ff ff       	call   8049124 <fun9>
 80491b6:	83 f8 02             	cmp    $0x2,%eax
 80491b9:	74 05                	je     80491c0 <phase_9+0x4b>
 80491bb:	e8 b5 03 00 00       	call   8049575 <explode_bomb>
 80491c0:	83 c4 18             	add    $0x18,%esp
 80491c3:	5b                   	pop    %ebx
 80491c4:	c3                   	ret    
 80491c5:	66 90                	xchg   %ax,%ax
 80491c7:	66 90                	xchg   %ax,%ax
 80491c9:	66 90                	xchg   %ax,%ax
 80491cb:	66 90                	xchg   %ax,%ax
 80491cd:	66 90                	xchg   %ax,%ax
 80491cf:	90                   	nop

080491d0 <sig_handler>:
 80491d0:	83 ec 1c             	sub    $0x1c,%esp
 80491d3:	c7 04 24 18 a6 04 08 	movl   $0x804a618,(%esp)
 80491da:	e8 a1 f6 ff ff       	call   8048880 <puts@plt>
 80491df:	c7 04 24 03 00 00 00 	movl   $0x3,(%esp)
 80491e6:	e8 25 f6 ff ff       	call   8048810 <sleep@plt>
 80491eb:	c7 44 24 04 75 a7 04 	movl   $0x804a775,0x4(%esp)
 80491f2:	08 
 80491f3:	c7 04 24 01 00 00 00 	movl   $0x1,(%esp)
 80491fa:	e8 31 f7 ff ff       	call   8048930 <__printf_chk@plt>
 80491ff:	a1 00 d8 04 08       	mov    0x804d800,%eax
 8049204:	89 04 24             	mov    %eax,(%esp)
 8049207:	e8 d4 f5 ff ff       	call   80487e0 <fflush@plt>
 804920c:	c7 04 24 01 00 00 00 	movl   $0x1,(%esp)
 8049213:	e8 f8 f5 ff ff       	call   8048810 <sleep@plt>
 8049218:	c7 04 24 7d a7 04 08 	movl   $0x804a77d,(%esp)
 804921f:	e8 5c f6 ff ff       	call   8048880 <puts@plt>
 8049224:	c7 04 24 10 00 00 00 	movl   $0x10,(%esp)
 804922b:	e8 90 f6 ff ff       	call   80488c0 <exit@plt>

08049230 <invalid_phase>:
 8049230:	83 ec 1c             	sub    $0x1c,%esp
 8049233:	8b 44 24 20          	mov    0x20(%esp),%eax
 8049237:	89 44 24 08          	mov    %eax,0x8(%esp)
 804923b:	c7 44 24 04 85 a7 04 	movl   $0x804a785,0x4(%esp)
 8049242:	08 
 8049243:	c7 04 24 01 00 00 00 	movl   $0x1,(%esp)
 804924a:	e8 e1 f6 ff ff       	call   8048930 <__printf_chk@plt>
 804924f:	c7 04 24 08 00 00 00 	movl   $0x8,(%esp)
 8049256:	e8 65 f6 ff ff       	call   80488c0 <exit@plt>

0804925b <string_length>:
 804925b:	8b 54 24 04          	mov    0x4(%esp),%edx
 804925f:	80 3a 00             	cmpb   $0x0,(%edx)
 8049262:	74 10                	je     8049274 <string_length+0x19>
 8049264:	b8 00 00 00 00       	mov    $0x0,%eax
 8049269:	83 c0 01             	add    $0x1,%eax
 804926c:	80 3c 02 00          	cmpb   $0x0,(%edx,%eax,1)
 8049270:	75 f7                	jne    8049269 <string_length+0xe>
 8049272:	f3 c3                	repz ret 
 8049274:	b8 00 00 00 00       	mov    $0x0,%eax
 8049279:	c3                   	ret    

0804927a <strings_not_equal>:
 804927a:	57                   	push   %edi
 804927b:	56                   	push   %esi
 804927c:	53                   	push   %ebx
 804927d:	83 ec 04             	sub    $0x4,%esp
 8049280:	8b 5c 24 14          	mov    0x14(%esp),%ebx
 8049284:	8b 74 24 18          	mov    0x18(%esp),%esi
 8049288:	89 1c 24             	mov    %ebx,(%esp)
 804928b:	e8 cb ff ff ff       	call   804925b <string_length>
 8049290:	89 c7                	mov    %eax,%edi
 8049292:	89 34 24             	mov    %esi,(%esp)
 8049295:	e8 c1 ff ff ff       	call   804925b <string_length>
 804929a:	ba 01 00 00 00       	mov    $0x1,%edx
 804929f:	39 c7                	cmp    %eax,%edi
 80492a1:	75 3a                	jne    80492dd <strings_not_equal+0x63>
 80492a3:	0f b6 03             	movzbl (%ebx),%eax
 80492a6:	84 c0                	test   %al,%al
 80492a8:	74 20                	je     80492ca <strings_not_equal+0x50>
 80492aa:	3a 06                	cmp    (%esi),%al
 80492ac:	74 08                	je     80492b6 <strings_not_equal+0x3c>
 80492ae:	66 90                	xchg   %ax,%ax
 80492b0:	eb 1f                	jmp    80492d1 <strings_not_equal+0x57>
 80492b2:	3a 06                	cmp    (%esi),%al
 80492b4:	75 22                	jne    80492d8 <strings_not_equal+0x5e>
 80492b6:	83 c3 01             	add    $0x1,%ebx
 80492b9:	83 c6 01             	add    $0x1,%esi
 80492bc:	0f b6 03             	movzbl (%ebx),%eax
 80492bf:	84 c0                	test   %al,%al
 80492c1:	75 ef                	jne    80492b2 <strings_not_equal+0x38>
 80492c3:	ba 00 00 00 00       	mov    $0x0,%edx
 80492c8:	eb 13                	jmp    80492dd <strings_not_equal+0x63>
 80492ca:	ba 00 00 00 00       	mov    $0x0,%edx
 80492cf:	eb 0c                	jmp    80492dd <strings_not_equal+0x63>
 80492d1:	ba 01 00 00 00       	mov    $0x1,%edx
 80492d6:	eb 05                	jmp    80492dd <strings_not_equal+0x63>
 80492d8:	ba 01 00 00 00       	mov    $0x1,%edx
 80492dd:	89 d0                	mov    %edx,%eax
 80492df:	83 c4 04             	add    $0x4,%esp
 80492e2:	5b                   	pop    %ebx
 80492e3:	5e                   	pop    %esi
 80492e4:	5f                   	pop    %edi
 80492e5:	c3                   	ret    

080492e6 <initialize_bomb>:
 80492e6:	56                   	push   %esi
 80492e7:	53                   	push   %ebx
 80492e8:	81 ec 64 20 00 00    	sub    $0x2064,%esp
 80492ee:	65 a1 14 00 00 00    	mov    %gs:0x14,%eax
 80492f4:	89 84 24 5c 20 00 00 	mov    %eax,0x205c(%esp)
 80492fb:	31 c0                	xor    %eax,%eax
 80492fd:	c7 44 24 04 d0 91 04 	movl   $0x80491d0,0x4(%esp)
 8049304:	08 
 8049305:	c7 04 24 02 00 00 00 	movl   $0x2,(%esp)
 804930c:	e8 ef f4 ff ff       	call   8048800 <signal@plt>
 8049311:	c7 44 24 04 40 00 00 	movl   $0x40,0x4(%esp)
 8049318:	00 
 8049319:	8d 44 24 1c          	lea    0x1c(%esp),%eax
 804931d:	89 04 24             	mov    %eax,(%esp)
 8049320:	e8 2b f5 ff ff       	call   8048850 <gethostname@plt>
 8049325:	85 c0                	test   %eax,%eax
 8049327:	75 14                	jne    804933d <initialize_bomb+0x57>
 8049329:	a1 e0 d5 04 08       	mov    0x804d5e0,%eax
 804932e:	bb 00 00 00 00       	mov    $0x0,%ebx
 8049333:	8d 74 24 1c          	lea    0x1c(%esp),%esi
 8049337:	85 c0                	test   %eax,%eax
 8049339:	75 1a                	jne    8049355 <initialize_bomb+0x6f>
 804933b:	eb 60                	jmp    804939d <initialize_bomb+0xb7>
 804933d:	c7 04 24 50 a6 04 08 	movl   $0x804a650,(%esp)
 8049344:	e8 37 f5 ff ff       	call   8048880 <puts@plt>
 8049349:	c7 04 24 08 00 00 00 	movl   $0x8,(%esp)
 8049350:	e8 6b f5 ff ff       	call   80488c0 <exit@plt>
 8049355:	89 74 24 04          	mov    %esi,0x4(%esp)
 8049359:	89 04 24             	mov    %eax,(%esp)
 804935c:	e8 8f f5 ff ff       	call   80488f0 <strcasecmp@plt>
 8049361:	85 c0                	test   %eax,%eax
 8049363:	74 50                	je     80493b5 <initialize_bomb+0xcf>
 8049365:	83 c3 01             	add    $0x1,%ebx
 8049368:	8b 04 9d e0 d5 04 08 	mov    0x804d5e0(,%ebx,4),%eax
 804936f:	85 c0                	test   %eax,%eax
 8049371:	75 e2                	jne    8049355 <initialize_bomb+0x6f>
 8049373:	eb 28                	jmp    804939d <initialize_bomb+0xb7>
 8049375:	8d 44 24 5c          	lea    0x5c(%esp),%eax
 8049379:	89 44 24 08          	mov    %eax,0x8(%esp)
 804937d:	c7 44 24 04 96 a7 04 	movl   $0x804a796,0x4(%esp)
 8049384:	08 
 8049385:	c7 04 24 01 00 00 00 	movl   $0x1,(%esp)
 804938c:	e8 9f f5 ff ff       	call   8048930 <__printf_chk@plt>
 8049391:	c7 04 24 08 00 00 00 	movl   $0x8,(%esp)
 8049398:	e8 23 f5 ff ff       	call   80488c0 <exit@plt>
 804939d:	c7 04 24 88 a6 04 08 	movl   $0x804a688,(%esp)
 80493a4:	e8 d7 f4 ff ff       	call   8048880 <puts@plt>
 80493a9:	c7 04 24 08 00 00 00 	movl   $0x8,(%esp)
 80493b0:	e8 0b f5 ff ff       	call   80488c0 <exit@plt>
 80493b5:	8d 44 24 5c          	lea    0x5c(%esp),%eax
 80493b9:	89 04 24             	mov    %eax,(%esp)
 80493bc:	e8 0d 0d 00 00       	call   804a0ce <init_driver>
 80493c1:	85 c0                	test   %eax,%eax
 80493c3:	78 b0                	js     8049375 <initialize_bomb+0x8f>
 80493c5:	8b 84 24 5c 20 00 00 	mov    0x205c(%esp),%eax
 80493cc:	65 33 05 14 00 00 00 	xor    %gs:0x14,%eax
 80493d3:	74 05                	je     80493da <initialize_bomb+0xf4>
 80493d5:	e8 56 f4 ff ff       	call   8048830 <__stack_chk_fail@plt>
 80493da:	81 c4 64 20 00 00    	add    $0x2064,%esp
 80493e0:	5b                   	pop    %ebx
 80493e1:	5e                   	pop    %esi
 80493e2:	c3                   	ret    

080493e3 <initialize_bomb_solve>:
 80493e3:	f3 c3                	repz ret 

080493e5 <blank_line>:
 80493e5:	56                   	push   %esi
 80493e6:	53                   	push   %ebx
 80493e7:	83 ec 04             	sub    $0x4,%esp
 80493ea:	8b 5c 24 10          	mov    0x10(%esp),%ebx
 80493ee:	eb 16                	jmp    8049406 <blank_line+0x21>
 80493f0:	e8 ab f5 ff ff       	call   80489a0 <__ctype_b_loc@plt>
 80493f5:	83 c3 01             	add    $0x1,%ebx
 80493f8:	89 f2                	mov    %esi,%edx
 80493fa:	0f be f2             	movsbl %dl,%esi
 80493fd:	8b 00                	mov    (%eax),%eax
 80493ff:	f6 44 70 01 20       	testb  $0x20,0x1(%eax,%esi,2)
 8049404:	74 10                	je     8049416 <blank_line+0x31>
 8049406:	0f b6 33             	movzbl (%ebx),%esi
 8049409:	89 f0                	mov    %esi,%eax
 804940b:	84 c0                	test   %al,%al
 804940d:	75 e1                	jne    80493f0 <blank_line+0xb>
 804940f:	b8 01 00 00 00       	mov    $0x1,%eax
 8049414:	eb 05                	jmp    804941b <blank_line+0x36>
 8049416:	b8 00 00 00 00       	mov    $0x0,%eax
 804941b:	83 c4 04             	add    $0x4,%esp
 804941e:	5b                   	pop    %ebx
 804941f:	5e                   	pop    %esi
 8049420:	c3                   	ret    

08049421 <skip>:
 8049421:	53                   	push   %ebx
 8049422:	83 ec 18             	sub    $0x18,%esp
 8049425:	a1 0c d8 04 08       	mov    0x804d80c,%eax
 804942a:	89 44 24 08          	mov    %eax,0x8(%esp)
 804942e:	c7 44 24 04 50 00 00 	movl   $0x50,0x4(%esp)
 8049435:	00 
 8049436:	a1 08 d8 04 08       	mov    0x804d808,%eax
 804943b:	8d 04 80             	lea    (%eax,%eax,4),%eax
 804943e:	c1 e0 04             	shl    $0x4,%eax
 8049441:	05 20 d8 04 08       	add    $0x804d820,%eax
 8049446:	89 04 24             	mov    %eax,(%esp)
 8049449:	e8 a2 f3 ff ff       	call   80487f0 <fgets@plt>
 804944e:	89 c3                	mov    %eax,%ebx
 8049450:	85 c0                	test   %eax,%eax
 8049452:	74 0c                	je     8049460 <skip+0x3f>
 8049454:	89 04 24             	mov    %eax,(%esp)
 8049457:	e8 89 ff ff ff       	call   80493e5 <blank_line>
 804945c:	85 c0                	test   %eax,%eax
 804945e:	75 c5                	jne    8049425 <skip+0x4>
 8049460:	89 d8                	mov    %ebx,%eax
 8049462:	83 c4 18             	add    $0x18,%esp
 8049465:	5b                   	pop    %ebx
 8049466:	c3                   	ret    

08049467 <send_msg>:
 8049467:	57                   	push   %edi
 8049468:	53                   	push   %ebx
 8049469:	81 ec 34 40 00 00    	sub    $0x4034,%esp
 804946f:	65 a1 14 00 00 00    	mov    %gs:0x14,%eax
 8049475:	89 84 24 2c 40 00 00 	mov    %eax,0x402c(%esp)
 804947c:	31 c0                	xor    %eax,%eax
 804947e:	8b 15 08 d8 04 08    	mov    0x804d808,%edx
 8049484:	8d 5c 92 fb          	lea    -0x5(%edx,%edx,4),%ebx
 8049488:	c1 e3 04             	shl    $0x4,%ebx
 804948b:	81 c3 20 d8 04 08    	add    $0x804d820,%ebx
 8049491:	89 df                	mov    %ebx,%edi
 8049493:	b9 ff ff ff ff       	mov    $0xffffffff,%ecx
 8049498:	f2 ae                	repnz scas %es:(%edi),%al
 804949a:	f7 d1                	not    %ecx
 804949c:	83 c1 63             	add    $0x63,%ecx
 804949f:	81 f9 00 20 00 00    	cmp    $0x2000,%ecx
 80494a5:	76 20                	jbe    80494c7 <send_msg+0x60>
 80494a7:	c7 44 24 04 c0 a6 04 	movl   $0x804a6c0,0x4(%esp)
 80494ae:	08 
 80494af:	c7 04 24 01 00 00 00 	movl   $0x1,(%esp)
 80494b6:	e8 75 f4 ff ff       	call   8048930 <__printf_chk@plt>
 80494bb:	c7 04 24 08 00 00 00 	movl   $0x8,(%esp)
 80494c2:	e8 f9 f3 ff ff       	call   80488c0 <exit@plt>
 80494c7:	83 bc 24 40 40 00 00 	cmpl   $0x0,0x4040(%esp)
 80494ce:	00 
 80494cf:	b8 b0 a7 04 08       	mov    $0x804a7b0,%eax
 80494d4:	b9 b8 a7 04 08       	mov    $0x804a7b8,%ecx
 80494d9:	0f 44 c1             	cmove  %ecx,%eax
 80494dc:	89 5c 24 1c          	mov    %ebx,0x1c(%esp)
 80494e0:	89 54 24 18          	mov    %edx,0x18(%esp)
 80494e4:	89 44 24 14          	mov    %eax,0x14(%esp)
 80494e8:	a1 c0 d5 04 08       	mov    0x804d5c0,%eax
 80494ed:	89 44 24 10          	mov    %eax,0x10(%esp)
 80494f1:	c7 44 24 0c c1 a7 04 	movl   $0x804a7c1,0xc(%esp)
 80494f8:	08 
 80494f9:	c7 44 24 08 00 20 00 	movl   $0x2000,0x8(%esp)
 8049500:	00 
 8049501:	c7 44 24 04 01 00 00 	movl   $0x1,0x4(%esp)
 8049508:	00 
 8049509:	8d 5c 24 2c          	lea    0x2c(%esp),%ebx
 804950d:	89 1c 24             	mov    %ebx,(%esp)
 8049510:	e8 9b f4 ff ff       	call   80489b0 <__sprintf_chk@plt>
 8049515:	8d 84 24 2c 20 00 00 	lea    0x202c(%esp),%eax
 804951c:	89 44 24 0c          	mov    %eax,0xc(%esp)
 8049520:	c7 44 24 08 00 00 00 	movl   $0x0,0x8(%esp)
 8049527:	00 
 8049528:	89 5c 24 04          	mov    %ebx,0x4(%esp)
 804952c:	c7 04 24 c0 d1 04 08 	movl   $0x804d1c0,(%esp)
 8049533:	e8 a4 0d 00 00       	call   804a2dc <driver_post>
 8049538:	85 c0                	test   %eax,%eax
 804953a:	79 1b                	jns    8049557 <send_msg+0xf0>
 804953c:	8d 84 24 2c 20 00 00 	lea    0x202c(%esp),%eax
 8049543:	89 04 24             	mov    %eax,(%esp)
 8049546:	e8 35 f3 ff ff       	call   8048880 <puts@plt>
 804954b:	c7 04 24 00 00 00 00 	movl   $0x0,(%esp)
 8049552:	e8 69 f3 ff ff       	call   80488c0 <exit@plt>
 8049557:	8b 84 24 2c 40 00 00 	mov    0x402c(%esp),%eax
 804955e:	65 33 05 14 00 00 00 	xor    %gs:0x14,%eax
 8049565:	74 05                	je     804956c <send_msg+0x105>
 8049567:	e8 c4 f2 ff ff       	call   8048830 <__stack_chk_fail@plt>
 804956c:	81 c4 34 40 00 00    	add    $0x4034,%esp
 8049572:	5b                   	pop    %ebx
 8049573:	5f                   	pop    %edi
 8049574:	c3                   	ret    

08049575 <explode_bomb>:
 8049575:	83 ec 1c             	sub    $0x1c,%esp
 8049578:	c7 04 24 cd a7 04 08 	movl   $0x804a7cd,(%esp)
 804957f:	e8 fc f2 ff ff       	call   8048880 <puts@plt>
 8049584:	c7 04 24 d6 a7 04 08 	movl   $0x804a7d6,(%esp)
 804958b:	e8 f0 f2 ff ff       	call   8048880 <puts@plt>
 8049590:	c7 04 24 00 00 00 00 	movl   $0x0,(%esp)
 8049597:	e8 cb fe ff ff       	call   8049467 <send_msg>
 804959c:	c7 04 24 e4 a6 04 08 	movl   $0x804a6e4,(%esp)
 80495a3:	e8 d8 f2 ff ff       	call   8048880 <puts@plt>
 80495a8:	c7 04 24 08 00 00 00 	movl   $0x8,(%esp)
 80495af:	e8 0c f3 ff ff       	call   80488c0 <exit@plt>

080495b4 <read_six_numbers>:
 80495b4:	83 ec 2c             	sub    $0x2c,%esp
 80495b7:	8b 44 24 34          	mov    0x34(%esp),%eax
 80495bb:	8d 50 14             	lea    0x14(%eax),%edx
 80495be:	89 54 24 1c          	mov    %edx,0x1c(%esp)
 80495c2:	8d 50 10             	lea    0x10(%eax),%edx
 80495c5:	89 54 24 18          	mov    %edx,0x18(%esp)
 80495c9:	8d 50 0c             	lea    0xc(%eax),%edx
 80495cc:	89 54 24 14          	mov    %edx,0x14(%esp)
 80495d0:	8d 50 08             	lea    0x8(%eax),%edx
 80495d3:	89 54 24 10          	mov    %edx,0x10(%esp)
 80495d7:	8d 50 04             	lea    0x4(%eax),%edx
 80495da:	89 54 24 0c          	mov    %edx,0xc(%esp)
 80495de:	89 44 24 08          	mov    %eax,0x8(%esp)
 80495e2:	c7 44 24 04 ed a7 04 	movl   $0x804a7ed,0x4(%esp)
 80495e9:	08 
 80495ea:	8b 44 24 30          	mov    0x30(%esp),%eax
 80495ee:	89 04 24             	mov    %eax,(%esp)
 80495f1:	e8 0a f3 ff ff       	call   8048900 <__isoc99_sscanf@plt>
 80495f6:	83 f8 05             	cmp    $0x5,%eax
 80495f9:	7f 05                	jg     8049600 <read_six_numbers+0x4c>
 80495fb:	e8 75 ff ff ff       	call   8049575 <explode_bomb>
 8049600:	83 c4 2c             	add    $0x2c,%esp
 8049603:	c3                   	ret    

08049604 <read_line>:
 8049604:	57                   	push   %edi
 8049605:	56                   	push   %esi
 8049606:	53                   	push   %ebx
 8049607:	83 ec 10             	sub    $0x10,%esp
 804960a:	e8 12 fe ff ff       	call   8049421 <skip>
 804960f:	85 c0                	test   %eax,%eax
 8049611:	75 6c                	jne    804967f <read_line+0x7b>
 8049613:	a1 e4 d7 04 08       	mov    0x804d7e4,%eax
 8049618:	39 05 0c d8 04 08    	cmp    %eax,0x804d80c
 804961e:	75 18                	jne    8049638 <read_line+0x34>
 8049620:	c7 04 24 ff a7 04 08 	movl   $0x804a7ff,(%esp)
 8049627:	e8 54 f2 ff ff       	call   8048880 <puts@plt>
 804962c:	c7 04 24 08 00 00 00 	movl   $0x8,(%esp)
 8049633:	e8 88 f2 ff ff       	call   80488c0 <exit@plt>
 8049638:	c7 04 24 1d a8 04 08 	movl   $0x804a81d,(%esp)
 804963f:	e8 1c f2 ff ff       	call   8048860 <getenv@plt>
 8049644:	85 c0                	test   %eax,%eax
 8049646:	74 0c                	je     8049654 <read_line+0x50>
 8049648:	c7 04 24 00 00 00 00 	movl   $0x0,(%esp)
 804964f:	e8 6c f2 ff ff       	call   80488c0 <exit@plt>
 8049654:	a1 e4 d7 04 08       	mov    0x804d7e4,%eax
 8049659:	a3 0c d8 04 08       	mov    %eax,0x804d80c
 804965e:	e8 be fd ff ff       	call   8049421 <skip>
 8049663:	85 c0                	test   %eax,%eax
 8049665:	75 18                	jne    804967f <read_line+0x7b>
 8049667:	c7 04 24 ff a7 04 08 	movl   $0x804a7ff,(%esp)
 804966e:	e8 0d f2 ff ff       	call   8048880 <puts@plt>
 8049673:	c7 04 24 00 00 00 00 	movl   $0x0,(%esp)
 804967a:	e8 41 f2 ff ff       	call   80488c0 <exit@plt>
 804967f:	8b 15 08 d8 04 08    	mov    0x804d808,%edx
 8049685:	8d 1c 92             	lea    (%edx,%edx,4),%ebx
 8049688:	c1 e3 04             	shl    $0x4,%ebx
 804968b:	81 c3 20 d8 04 08    	add    $0x804d820,%ebx
 8049691:	89 df                	mov    %ebx,%edi
 8049693:	b8 00 00 00 00       	mov    $0x0,%eax
 8049698:	b9 ff ff ff ff       	mov    $0xffffffff,%ecx
 804969d:	f2 ae                	repnz scas %es:(%edi),%al
 804969f:	f7 d1                	not    %ecx
 80496a1:	83 e9 01             	sub    $0x1,%ecx
 80496a4:	83 f9 4e             	cmp    $0x4e,%ecx
 80496a7:	7e 35                	jle    80496de <read_line+0xda>
 80496a9:	c7 04 24 28 a8 04 08 	movl   $0x804a828,(%esp)
 80496b0:	e8 cb f1 ff ff       	call   8048880 <puts@plt>
 80496b5:	a1 08 d8 04 08       	mov    0x804d808,%eax
 80496ba:	8d 50 01             	lea    0x1(%eax),%edx
 80496bd:	89 15 08 d8 04 08    	mov    %edx,0x804d808
 80496c3:	6b c0 50             	imul   $0x50,%eax,%eax
 80496c6:	05 20 d8 04 08       	add    $0x804d820,%eax
 80496cb:	be 43 a8 04 08       	mov    $0x804a843,%esi
 80496d0:	b9 04 00 00 00       	mov    $0x4,%ecx
 80496d5:	89 c7                	mov    %eax,%edi
 80496d7:	f3 a5                	rep movsl %ds:(%esi),%es:(%edi)
 80496d9:	e8 97 fe ff ff       	call   8049575 <explode_bomb>
 80496de:	8d 04 92             	lea    (%edx,%edx,4),%eax
 80496e1:	c1 e0 04             	shl    $0x4,%eax
 80496e4:	c6 84 01 1f d8 04 08 	movb   $0x0,0x804d81f(%ecx,%eax,1)
 80496eb:	00 
 80496ec:	83 c2 01             	add    $0x1,%edx
 80496ef:	89 15 08 d8 04 08    	mov    %edx,0x804d808
 80496f5:	89 d8                	mov    %ebx,%eax
 80496f7:	83 c4 10             	add    $0x10,%esp
 80496fa:	5b                   	pop    %ebx
 80496fb:	5e                   	pop    %esi
 80496fc:	5f                   	pop    %edi
 80496fd:	c3                   	ret    

080496fe <phase_defused>:
 80496fe:	83 ec 1c             	sub    $0x1c,%esp
 8049701:	c7 04 24 01 00 00 00 	movl   $0x1,(%esp)
 8049708:	e8 5a fd ff ff       	call   8049467 <send_msg>
 804970d:	83 3d 08 d8 04 08 09 	cmpl   $0x9,0x804d808
 8049714:	75 18                	jne    804972e <phase_defused+0x30>
 8049716:	c7 04 24 08 a7 04 08 	movl   $0x804a708,(%esp)
 804971d:	e8 5e f1 ff ff       	call   8048880 <puts@plt>
 8049722:	c7 04 24 34 a7 04 08 	movl   $0x804a734,(%esp)
 8049729:	e8 52 f1 ff ff       	call   8048880 <puts@plt>
 804972e:	83 c4 1c             	add    $0x1c,%esp
 8049731:	c3                   	ret    
 8049732:	66 90                	xchg   %ax,%ax
 8049734:	66 90                	xchg   %ax,%ax
 8049736:	66 90                	xchg   %ax,%ax
 8049738:	66 90                	xchg   %ax,%ax
 804973a:	66 90                	xchg   %ax,%ax
 804973c:	66 90                	xchg   %ax,%ax
 804973e:	66 90                	xchg   %ax,%ax

08049740 <sigalrm_handler>:
 8049740:	83 ec 1c             	sub    $0x1c,%esp
 8049743:	c7 44 24 0c 00 00 00 	movl   $0x0,0xc(%esp)
 804974a:	00 
 804974b:	c7 44 24 08 e8 ab 04 	movl   $0x804abe8,0x8(%esp)
 8049752:	08 
 8049753:	c7 44 24 04 01 00 00 	movl   $0x1,0x4(%esp)
 804975a:	00 
 804975b:	a1 e0 d7 04 08       	mov    0x804d7e0,%eax
 8049760:	89 04 24             	mov    %eax,(%esp)
 8049763:	e8 e8 f1 ff ff       	call   8048950 <__fprintf_chk@plt>
 8049768:	c7 04 24 01 00 00 00 	movl   $0x1,(%esp)
 804976f:	e8 4c f1 ff ff       	call   80488c0 <exit@plt>

08049774 <rio_readlineb>:
 8049774:	55                   	push   %ebp
 8049775:	57                   	push   %edi
 8049776:	56                   	push   %esi
 8049777:	53                   	push   %ebx
 8049778:	83 ec 3c             	sub    $0x3c,%esp
 804977b:	89 d5                	mov    %edx,%ebp
 804977d:	83 f9 01             	cmp    $0x1,%ecx
 8049780:	0f 86 d0 00 00 00    	jbe    8049856 <rio_readlineb+0xe2>
 8049786:	89 c3                	mov    %eax,%ebx
 8049788:	89 4c 24 1c          	mov    %ecx,0x1c(%esp)
 804978c:	c7 44 24 10 01 00 00 	movl   $0x1,0x10(%esp)
 8049793:	00 
 8049794:	8d 78 0c             	lea    0xc(%eax),%edi
 8049797:	eb 33                	jmp    80497cc <rio_readlineb+0x58>
 8049799:	c7 44 24 08 00 20 00 	movl   $0x2000,0x8(%esp)
 80497a0:	00 
 80497a1:	89 7c 24 04          	mov    %edi,0x4(%esp)
 80497a5:	8b 03                	mov    (%ebx),%eax
 80497a7:	89 04 24             	mov    %eax,(%esp)
 80497aa:	e8 21 f0 ff ff       	call   80487d0 <read@plt>
 80497af:	89 43 04             	mov    %eax,0x4(%ebx)
 80497b2:	85 c0                	test   %eax,%eax
 80497b4:	79 0f                	jns    80497c5 <rio_readlineb+0x51>
 80497b6:	e8 65 f1 ff ff       	call   8048920 <__errno_location@plt>
 80497bb:	83 38 04             	cmpl   $0x4,(%eax)
 80497be:	74 0c                	je     80497cc <rio_readlineb+0x58>
 80497c0:	e9 a3 00 00 00       	jmp    8049868 <rio_readlineb+0xf4>
 80497c5:	85 c0                	test   %eax,%eax
 80497c7:	74 6e                	je     8049837 <rio_readlineb+0xc3>
 80497c9:	89 7b 08             	mov    %edi,0x8(%ebx)
 80497cc:	8b 73 04             	mov    0x4(%ebx),%esi
 80497cf:	85 f6                	test   %esi,%esi
 80497d1:	7e c6                	jle    8049799 <rio_readlineb+0x25>
 80497d3:	85 f6                	test   %esi,%esi
 80497d5:	0f 95 c0             	setne  %al
 80497d8:	0f b6 c0             	movzbl %al,%eax
 80497db:	89 44 24 14          	mov    %eax,0x14(%esp)
 80497df:	8b 4b 08             	mov    0x8(%ebx),%ecx
 80497e2:	c7 44 24 0c 01 00 00 	movl   $0x1,0xc(%esp)
 80497e9:	00 
 80497ea:	89 44 24 08          	mov    %eax,0x8(%esp)
 80497ee:	89 4c 24 18          	mov    %ecx,0x18(%esp)
 80497f2:	89 4c 24 04          	mov    %ecx,0x4(%esp)
 80497f6:	8d 54 24 2f          	lea    0x2f(%esp),%edx
 80497fa:	89 14 24             	mov    %edx,(%esp)
 80497fd:	e8 9e f0 ff ff       	call   80488a0 <__memcpy_chk@plt>
 8049802:	8b 4c 24 18          	mov    0x18(%esp),%ecx
 8049806:	8b 54 24 14          	mov    0x14(%esp),%edx
 804980a:	01 d1                	add    %edx,%ecx
 804980c:	89 4b 08             	mov    %ecx,0x8(%ebx)
 804980f:	29 d6                	sub    %edx,%esi
 8049811:	89 73 04             	mov    %esi,0x4(%ebx)
 8049814:	83 fa 01             	cmp    $0x1,%edx
 8049817:	75 11                	jne    804982a <rio_readlineb+0xb6>
 8049819:	83 c5 01             	add    $0x1,%ebp
 804981c:	0f b6 44 24 2f       	movzbl 0x2f(%esp),%eax
 8049821:	88 45 ff             	mov    %al,-0x1(%ebp)
 8049824:	3c 0a                	cmp    $0xa,%al
 8049826:	75 1a                	jne    8049842 <rio_readlineb+0xce>
 8049828:	eb 34                	jmp    804985e <rio_readlineb+0xea>
 804982a:	83 7c 24 14 00       	cmpl   $0x0,0x14(%esp)
 804982f:	75 3e                	jne    804986f <rio_readlineb+0xfb>
 8049831:	8b 44 24 10          	mov    0x10(%esp),%eax
 8049835:	eb 04                	jmp    804983b <rio_readlineb+0xc7>
 8049837:	8b 44 24 10          	mov    0x10(%esp),%eax
 804983b:	83 f8 01             	cmp    $0x1,%eax
 804983e:	75 1e                	jne    804985e <rio_readlineb+0xea>
 8049840:	eb 34                	jmp    8049876 <rio_readlineb+0x102>
 8049842:	83 44 24 10 01       	addl   $0x1,0x10(%esp)
 8049847:	8b 44 24 1c          	mov    0x1c(%esp),%eax
 804984b:	39 44 24 10          	cmp    %eax,0x10(%esp)
 804984f:	74 0d                	je     804985e <rio_readlineb+0xea>
 8049851:	e9 76 ff ff ff       	jmp    80497cc <rio_readlineb+0x58>
 8049856:	c7 44 24 10 01 00 00 	movl   $0x1,0x10(%esp)
 804985d:	00 
 804985e:	c6 45 00 00          	movb   $0x0,0x0(%ebp)
 8049862:	8b 44 24 10          	mov    0x10(%esp),%eax
 8049866:	eb 13                	jmp    804987b <rio_readlineb+0x107>
 8049868:	b8 ff ff ff ff       	mov    $0xffffffff,%eax
 804986d:	eb 0c                	jmp    804987b <rio_readlineb+0x107>
 804986f:	b8 ff ff ff ff       	mov    $0xffffffff,%eax
 8049874:	eb 05                	jmp    804987b <rio_readlineb+0x107>
 8049876:	b8 00 00 00 00       	mov    $0x0,%eax
 804987b:	83 c4 3c             	add    $0x3c,%esp
 804987e:	5b                   	pop    %ebx
 804987f:	5e                   	pop    %esi
 8049880:	5f                   	pop    %edi
 8049881:	5d                   	pop    %ebp
 8049882:	c3                   	ret    

08049883 <submitr>:
 8049883:	55                   	push   %ebp
 8049884:	57                   	push   %edi
 8049885:	56                   	push   %esi
 8049886:	53                   	push   %ebx
 8049887:	81 ec 7c a0 00 00    	sub    $0xa07c,%esp
 804988d:	8b b4 24 90 a0 00 00 	mov    0xa090(%esp),%esi
 8049894:	8b 84 24 98 a0 00 00 	mov    0xa098(%esp),%eax
 804989b:	89 44 24 28          	mov    %eax,0x28(%esp)
 804989f:	8b 84 24 9c a0 00 00 	mov    0xa09c(%esp),%eax
 80498a6:	89 44 24 2c          	mov    %eax,0x2c(%esp)
 80498aa:	8b 84 24 a0 a0 00 00 	mov    0xa0a0(%esp),%eax
 80498b1:	89 44 24 30          	mov    %eax,0x30(%esp)
 80498b5:	8b 9c 24 a4 a0 00 00 	mov    0xa0a4(%esp),%ebx
 80498bc:	8b 84 24 a8 a0 00 00 	mov    0xa0a8(%esp),%eax
 80498c3:	89 44 24 34          	mov    %eax,0x34(%esp)
 80498c7:	65 a1 14 00 00 00    	mov    %gs:0x14,%eax
 80498cd:	89 84 24 6c a0 00 00 	mov    %eax,0xa06c(%esp)
 80498d4:	31 c0                	xor    %eax,%eax
 80498d6:	c7 44 24 4c 00 00 00 	movl   $0x0,0x4c(%esp)
 80498dd:	00 
 80498de:	c7 44 24 08 00 00 00 	movl   $0x0,0x8(%esp)
 80498e5:	00 
 80498e6:	c7 44 24 04 01 00 00 	movl   $0x1,0x4(%esp)
 80498ed:	00 
 80498ee:	c7 04 24 02 00 00 00 	movl   $0x2,(%esp)
 80498f5:	e8 46 f0 ff ff       	call   8048940 <socket@plt>
 80498fa:	89 c5                	mov    %eax,%ebp
 80498fc:	85 c0                	test   %eax,%eax
 80498fe:	79 52                	jns    8049952 <submitr+0xcf>
 8049900:	8b 44 24 34          	mov    0x34(%esp),%eax
 8049904:	c7 00 45 72 72 6f    	movl   $0x6f727245,(%eax)
 804990a:	c7 40 04 72 3a 20 43 	movl   $0x43203a72,0x4(%eax)
 8049911:	c7 40 08 6c 69 65 6e 	movl   $0x6e65696c,0x8(%eax)
 8049918:	c7 40 0c 74 20 75 6e 	movl   $0x6e752074,0xc(%eax)
 804991f:	c7 40 10 61 62 6c 65 	movl   $0x656c6261,0x10(%eax)
 8049926:	c7 40 14 20 74 6f 20 	movl   $0x206f7420,0x14(%eax)
 804992d:	c7 40 18 63 72 65 61 	movl   $0x61657263,0x18(%eax)
 8049934:	c7 40 1c 74 65 20 73 	movl   $0x73206574,0x1c(%eax)
 804993b:	c7 40 20 6f 63 6b 65 	movl   $0x656b636f,0x20(%eax)
 8049942:	66 c7 40 24 74 00    	movw   $0x74,0x24(%eax)
 8049948:	b8 ff ff ff ff       	mov    $0xffffffff,%eax
 804994d:	e9 37 06 00 00       	jmp    8049f89 <submitr+0x706>
 8049952:	89 34 24             	mov    %esi,(%esp)
 8049955:	e8 06 f0 ff ff       	call   8048960 <gethostbyname@plt>
 804995a:	85 c0                	test   %eax,%eax
 804995c:	75 6c                	jne    80499ca <submitr+0x147>
 804995e:	8b 44 24 34          	mov    0x34(%esp),%eax
 8049962:	c7 00 45 72 72 6f    	movl   $0x6f727245,(%eax)
 8049968:	c7 40 04 72 3a 20 44 	movl   $0x44203a72,0x4(%eax)
 804996f:	c7 40 08 4e 53 20 69 	movl   $0x6920534e,0x8(%eax)
 8049976:	c7 40 0c 73 20 75 6e 	movl   $0x6e752073,0xc(%eax)
 804997d:	c7 40 10 61 62 6c 65 	movl   $0x656c6261,0x10(%eax)
 8049984:	c7 40 14 20 74 6f 20 	movl   $0x206f7420,0x14(%eax)
 804998b:	c7 40 18 72 65 73 6f 	movl   $0x6f736572,0x18(%eax)
 8049992:	c7 40 1c 6c 76 65 20 	movl   $0x2065766c,0x1c(%eax)
 8049999:	c7 40 20 73 65 72 76 	movl   $0x76726573,0x20(%eax)
 80499a0:	c7 40 24 65 72 20 61 	movl   $0x61207265,0x24(%eax)
 80499a7:	c7 40 28 64 64 72 65 	movl   $0x65726464,0x28(%eax)
 80499ae:	66 c7 40 2c 73 73    	movw   $0x7373,0x2c(%eax)
 80499b4:	c6 40 2e 00          	movb   $0x0,0x2e(%eax)
 80499b8:	89 2c 24             	mov    %ebp,(%esp)
 80499bb:	e8 d0 ef ff ff       	call   8048990 <close@plt>
 80499c0:	b8 ff ff ff ff       	mov    $0xffffffff,%eax
 80499c5:	e9 bf 05 00 00       	jmp    8049f89 <submitr+0x706>
 80499ca:	8d 74 24 50          	lea    0x50(%esp),%esi
 80499ce:	c7 44 24 50 00 00 00 	movl   $0x0,0x50(%esp)
 80499d5:	00 
 80499d6:	c7 44 24 54 00 00 00 	movl   $0x0,0x54(%esp)
 80499dd:	00 
 80499de:	c7 44 24 58 00 00 00 	movl   $0x0,0x58(%esp)
 80499e5:	00 
 80499e6:	c7 44 24 5c 00 00 00 	movl   $0x0,0x5c(%esp)
 80499ed:	00 
 80499ee:	66 c7 44 24 50 02 00 	movw   $0x2,0x50(%esp)
 80499f5:	c7 44 24 0c 0c 00 00 	movl   $0xc,0xc(%esp)
 80499fc:	00 
 80499fd:	8b 50 0c             	mov    0xc(%eax),%edx
 8049a00:	89 54 24 08          	mov    %edx,0x8(%esp)
 8049a04:	8b 40 10             	mov    0x10(%eax),%eax
 8049a07:	8b 00                	mov    (%eax),%eax
 8049a09:	89 44 24 04          	mov    %eax,0x4(%esp)
 8049a0d:	8d 44 24 54          	lea    0x54(%esp),%eax
 8049a11:	89 04 24             	mov    %eax,(%esp)
 8049a14:	e8 77 ee ff ff       	call   8048890 <__memmove_chk@plt>
 8049a19:	0f b7 84 24 94 a0 00 	movzwl 0xa094(%esp),%eax
 8049a20:	00 
 8049a21:	66 c1 c8 08          	ror    $0x8,%ax
 8049a25:	66 89 44 24 52       	mov    %ax,0x52(%esp)
 8049a2a:	c7 44 24 08 10 00 00 	movl   $0x10,0x8(%esp)
 8049a31:	00 
 8049a32:	89 74 24 04          	mov    %esi,0x4(%esp)
 8049a36:	89 2c 24             	mov    %ebp,(%esp)
 8049a39:	e8 42 ef ff ff       	call   8048980 <connect@plt>
 8049a3e:	85 c0                	test   %eax,%eax
 8049a40:	79 5e                	jns    8049aa0 <submitr+0x21d>
 8049a42:	8b 44 24 34          	mov    0x34(%esp),%eax
 8049a46:	c7 00 45 72 72 6f    	movl   $0x6f727245,(%eax)
 8049a4c:	c7 40 04 72 3a 20 55 	movl   $0x55203a72,0x4(%eax)
 8049a53:	c7 40 08 6e 61 62 6c 	movl   $0x6c62616e,0x8(%eax)
 8049a5a:	c7 40 0c 65 20 74 6f 	movl   $0x6f742065,0xc(%eax)
 8049a61:	c7 40 10 20 63 6f 6e 	movl   $0x6e6f6320,0x10(%eax)
 8049a68:	c7 40 14 6e 65 63 74 	movl   $0x7463656e,0x14(%eax)
 8049a6f:	c7 40 18 20 74 6f 20 	movl   $0x206f7420,0x18(%eax)
 8049a76:	c7 40 1c 74 68 65 20 	movl   $0x20656874,0x1c(%eax)
 8049a7d:	c7 40 20 73 65 72 76 	movl   $0x76726573,0x20(%eax)
 8049a84:	66 c7 40 24 65 72    	movw   $0x7265,0x24(%eax)
 8049a8a:	c6 40 26 00          	movb   $0x0,0x26(%eax)
 8049a8e:	89 2c 24             	mov    %ebp,(%esp)
 8049a91:	e8 fa ee ff ff       	call   8048990 <close@plt>
 8049a96:	b8 ff ff ff ff       	mov    $0xffffffff,%eax
 8049a9b:	e9 e9 04 00 00       	jmp    8049f89 <submitr+0x706>
 8049aa0:	ba ff ff ff ff       	mov    $0xffffffff,%edx
 8049aa5:	89 df                	mov    %ebx,%edi
 8049aa7:	b8 00 00 00 00       	mov    $0x0,%eax
 8049aac:	89 d1                	mov    %edx,%ecx
 8049aae:	f2 ae                	repnz scas %es:(%edi),%al
 8049ab0:	f7 d1                	not    %ecx
 8049ab2:	89 ce                	mov    %ecx,%esi
 8049ab4:	8b 7c 24 28          	mov    0x28(%esp),%edi
 8049ab8:	89 d1                	mov    %edx,%ecx
 8049aba:	f2 ae                	repnz scas %es:(%edi),%al
 8049abc:	89 4c 24 38          	mov    %ecx,0x38(%esp)
 8049ac0:	8b 7c 24 2c          	mov    0x2c(%esp),%edi
 8049ac4:	89 d1                	mov    %edx,%ecx
 8049ac6:	f2 ae                	repnz scas %es:(%edi),%al
 8049ac8:	f7 d1                	not    %ecx
 8049aca:	89 4c 24 3c          	mov    %ecx,0x3c(%esp)
 8049ace:	8b 7c 24 30          	mov    0x30(%esp),%edi
 8049ad2:	89 d1                	mov    %edx,%ecx
 8049ad4:	f2 ae                	repnz scas %es:(%edi),%al
 8049ad6:	8b 44 24 3c          	mov    0x3c(%esp),%eax
 8049ada:	2b 44 24 38          	sub    0x38(%esp),%eax
 8049ade:	29 c8                	sub    %ecx,%eax
 8049ae0:	89 c2                	mov    %eax,%edx
 8049ae2:	8d 44 76 fd          	lea    -0x3(%esi,%esi,2),%eax
 8049ae6:	8d 44 02 7b          	lea    0x7b(%edx,%eax,1),%eax
 8049aea:	3d 00 20 00 00       	cmp    $0x2000,%eax
 8049aef:	76 77                	jbe    8049b68 <submitr+0x2e5>
 8049af1:	8b 44 24 34          	mov    0x34(%esp),%eax
 8049af5:	c7 00 45 72 72 6f    	movl   $0x6f727245,(%eax)
 8049afb:	c7 40 04 72 3a 20 52 	movl   $0x52203a72,0x4(%eax)
 8049b02:	c7 40 08 65 73 75 6c 	movl   $0x6c757365,0x8(%eax)
 8049b09:	c7 40 0c 74 20 73 74 	movl   $0x74732074,0xc(%eax)
 8049b10:	c7 40 10 72 69 6e 67 	movl   $0x676e6972,0x10(%eax)
 8049b17:	c7 40 14 20 74 6f 6f 	movl   $0x6f6f7420,0x14(%eax)
 8049b1e:	c7 40 18 20 6c 61 72 	movl   $0x72616c20,0x18(%eax)
 8049b25:	c7 40 1c 67 65 2e 20 	movl   $0x202e6567,0x1c(%eax)
 8049b2c:	c7 40 20 49 6e 63 72 	movl   $0x72636e49,0x20(%eax)
 8049b33:	c7 40 24 65 61 73 65 	movl   $0x65736165,0x24(%eax)
 8049b3a:	c7 40 28 20 53 55 42 	movl   $0x42555320,0x28(%eax)
 8049b41:	c7 40 2c 4d 49 54 52 	movl   $0x5254494d,0x2c(%eax)
 8049b48:	c7 40 30 5f 4d 41 58 	movl   $0x58414d5f,0x30(%eax)
 8049b4f:	c7 40 34 42 55 46 00 	movl   $0x465542,0x34(%eax)
 8049b56:	89 2c 24             	mov    %ebp,(%esp)
 8049b59:	e8 32 ee ff ff       	call   8048990 <close@plt>
 8049b5e:	b8 ff ff ff ff       	mov    $0xffffffff,%eax
 8049b63:	e9 21 04 00 00       	jmp    8049f89 <submitr+0x706>
 8049b68:	8d 94 24 60 20 00 00 	lea    0x2060(%esp),%edx
 8049b6f:	b9 00 08 00 00       	mov    $0x800,%ecx
 8049b74:	b8 00 00 00 00       	mov    $0x0,%eax
 8049b79:	89 d7                	mov    %edx,%edi
 8049b7b:	f3 ab                	rep stos %eax,%es:(%edi)
 8049b7d:	89 df                	mov    %ebx,%edi
 8049b7f:	b9 ff ff ff ff       	mov    $0xffffffff,%ecx
 8049b84:	f2 ae                	repnz scas %es:(%edi),%al
 8049b86:	f7 d1                	not    %ecx
 8049b88:	83 e9 01             	sub    $0x1,%ecx
 8049b8b:	89 ce                	mov    %ecx,%esi
 8049b8d:	0f 84 0f 04 00 00    	je     8049fa2 <submitr+0x71f>
 8049b93:	89 d7                	mov    %edx,%edi
 8049b95:	0f b6 03             	movzbl (%ebx),%eax
 8049b98:	3c 2a                	cmp    $0x2a,%al
 8049b9a:	74 21                	je     8049bbd <submitr+0x33a>
 8049b9c:	8d 50 d3             	lea    -0x2d(%eax),%edx
 8049b9f:	80 fa 01             	cmp    $0x1,%dl
 8049ba2:	76 19                	jbe    8049bbd <submitr+0x33a>
 8049ba4:	3c 5f                	cmp    $0x5f,%al
 8049ba6:	74 15                	je     8049bbd <submitr+0x33a>
 8049ba8:	8d 50 d0             	lea    -0x30(%eax),%edx
 8049bab:	80 fa 09             	cmp    $0x9,%dl
 8049bae:	76 0d                	jbe    8049bbd <submitr+0x33a>
 8049bb0:	89 c2                	mov    %eax,%edx
 8049bb2:	83 e2 df             	and    $0xffffffdf,%edx
 8049bb5:	83 ea 41             	sub    $0x41,%edx
 8049bb8:	80 fa 19             	cmp    $0x19,%dl
 8049bbb:	77 07                	ja     8049bc4 <submitr+0x341>
 8049bbd:	8d 57 01             	lea    0x1(%edi),%edx
 8049bc0:	88 07                	mov    %al,(%edi)
 8049bc2:	eb 6d                	jmp    8049c31 <submitr+0x3ae>
 8049bc4:	3c 20                	cmp    $0x20,%al
 8049bc6:	75 08                	jne    8049bd0 <submitr+0x34d>
 8049bc8:	8d 57 01             	lea    0x1(%edi),%edx
 8049bcb:	c6 07 2b             	movb   $0x2b,(%edi)
 8049bce:	eb 61                	jmp    8049c31 <submitr+0x3ae>
 8049bd0:	8d 50 e0             	lea    -0x20(%eax),%edx
 8049bd3:	80 fa 5f             	cmp    $0x5f,%dl
 8049bd6:	76 08                	jbe    8049be0 <submitr+0x35d>
 8049bd8:	3c 09                	cmp    $0x9,%al
 8049bda:	0f 85 2d 04 00 00    	jne    804a00d <submitr+0x78a>
 8049be0:	0f b6 c0             	movzbl %al,%eax
 8049be3:	89 44 24 10          	mov    %eax,0x10(%esp)
 8049be7:	c7 44 24 0c f4 ac 04 	movl   $0x804acf4,0xc(%esp)
 8049bee:	08 
 8049bef:	c7 44 24 08 08 00 00 	movl   $0x8,0x8(%esp)
 8049bf6:	00 
 8049bf7:	c7 44 24 04 01 00 00 	movl   $0x1,0x4(%esp)
 8049bfe:	00 
 8049bff:	8d 84 24 60 80 00 00 	lea    0x8060(%esp),%eax
 8049c06:	89 04 24             	mov    %eax,(%esp)
 8049c09:	e8 a2 ed ff ff       	call   80489b0 <__sprintf_chk@plt>
 8049c0e:	0f b6 84 24 60 80 00 	movzbl 0x8060(%esp),%eax
 8049c15:	00 
 8049c16:	88 07                	mov    %al,(%edi)
 8049c18:	0f b6 84 24 61 80 00 	movzbl 0x8061(%esp),%eax
 8049c1f:	00 
 8049c20:	88 47 01             	mov    %al,0x1(%edi)
 8049c23:	8d 57 03             	lea    0x3(%edi),%edx
 8049c26:	0f b6 84 24 62 80 00 	movzbl 0x8062(%esp),%eax
 8049c2d:	00 
 8049c2e:	88 47 02             	mov    %al,0x2(%edi)
 8049c31:	83 c3 01             	add    $0x1,%ebx
 8049c34:	83 ee 01             	sub    $0x1,%esi
 8049c37:	0f 84 65 03 00 00    	je     8049fa2 <submitr+0x71f>
 8049c3d:	89 d7                	mov    %edx,%edi
 8049c3f:	e9 51 ff ff ff       	jmp    8049b95 <submitr+0x312>
 8049c44:	89 5c 24 08          	mov    %ebx,0x8(%esp)
 8049c48:	89 74 24 04          	mov    %esi,0x4(%esp)
 8049c4c:	89 2c 24             	mov    %ebp,(%esp)
 8049c4f:	e8 8c ec ff ff       	call   80488e0 <write@plt>
 8049c54:	85 c0                	test   %eax,%eax
 8049c56:	7f 0f                	jg     8049c67 <submitr+0x3e4>
 8049c58:	e8 c3 ec ff ff       	call   8048920 <__errno_location@plt>
 8049c5d:	83 38 04             	cmpl   $0x4,(%eax)
 8049c60:	75 0f                	jne    8049c71 <submitr+0x3ee>
 8049c62:	b8 00 00 00 00       	mov    $0x0,%eax
 8049c67:	01 c6                	add    %eax,%esi
 8049c69:	29 c3                	sub    %eax,%ebx
 8049c6b:	75 d7                	jne    8049c44 <submitr+0x3c1>
 8049c6d:	85 ff                	test   %edi,%edi
 8049c6f:	79 62                	jns    8049cd3 <submitr+0x450>
 8049c71:	8b 44 24 34          	mov    0x34(%esp),%eax
 8049c75:	c7 00 45 72 72 6f    	movl   $0x6f727245,(%eax)
 8049c7b:	c7 40 04 72 3a 20 43 	movl   $0x43203a72,0x4(%eax)
 8049c82:	c7 40 08 6c 69 65 6e 	movl   $0x6e65696c,0x8(%eax)
 8049c89:	c7 40 0c 74 20 75 6e 	movl   $0x6e752074,0xc(%eax)
 8049c90:	c7 40 10 61 62 6c 65 	movl   $0x656c6261,0x10(%eax)
 8049c97:	c7 40 14 20 74 6f 20 	movl   $0x206f7420,0x14(%eax)
 8049c9e:	c7 40 18 77 72 69 74 	movl   $0x74697277,0x18(%eax)
 8049ca5:	c7 40 1c 65 20 74 6f 	movl   $0x6f742065,0x1c(%eax)
 8049cac:	c7 40 20 20 74 68 65 	movl   $0x65687420,0x20(%eax)
 8049cb3:	c7 40 24 20 73 65 72 	movl   $0x72657320,0x24(%eax)
 8049cba:	c7 40 28 76 65 72 00 	movl   $0x726576,0x28(%eax)
 8049cc1:	89 2c 24             	mov    %ebp,(%esp)
 8049cc4:	e8 c7 ec ff ff       	call   8048990 <close@plt>
 8049cc9:	b8 ff ff ff ff       	mov    $0xffffffff,%eax
 8049cce:	e9 b6 02 00 00       	jmp    8049f89 <submitr+0x706>
 8049cd3:	89 ac 24 60 80 00 00 	mov    %ebp,0x8060(%esp)
 8049cda:	c7 84 24 64 80 00 00 	movl   $0x0,0x8064(%esp)
 8049ce1:	00 00 00 00 
 8049ce5:	8d 84 24 6c 80 00 00 	lea    0x806c(%esp),%eax
 8049cec:	89 84 24 68 80 00 00 	mov    %eax,0x8068(%esp)
 8049cf3:	b9 00 20 00 00       	mov    $0x2000,%ecx
 8049cf8:	8d 54 24 60          	lea    0x60(%esp),%edx
 8049cfc:	8d 84 24 60 80 00 00 	lea    0x8060(%esp),%eax
 8049d03:	e8 6c fa ff ff       	call   8049774 <rio_readlineb>
 8049d08:	85 c0                	test   %eax,%eax
 8049d0a:	7f 76                	jg     8049d82 <submitr+0x4ff>
 8049d0c:	8b 44 24 34          	mov    0x34(%esp),%eax
 8049d10:	c7 00 45 72 72 6f    	movl   $0x6f727245,(%eax)
 8049d16:	c7 40 04 72 3a 20 43 	movl   $0x43203a72,0x4(%eax)
 8049d1d:	c7 40 08 6c 69 65 6e 	movl   $0x6e65696c,0x8(%eax)
 8049d24:	c7 40 0c 74 20 75 6e 	movl   $0x6e752074,0xc(%eax)
 8049d2b:	c7 40 10 61 62 6c 65 	movl   $0x656c6261,0x10(%eax)
 8049d32:	c7 40 14 20 74 6f 20 	movl   $0x206f7420,0x14(%eax)
 8049d39:	c7 40 18 72 65 61 64 	movl   $0x64616572,0x18(%eax)
 8049d40:	c7 40 1c 20 66 69 72 	movl   $0x72696620,0x1c(%eax)
 8049d47:	c7 40 20 73 74 20 68 	movl   $0x68207473,0x20(%eax)
 8049d4e:	c7 40 24 65 61 64 65 	movl   $0x65646165,0x24(%eax)
 8049d55:	c7 40 28 72 20 66 72 	movl   $0x72662072,0x28(%eax)
 8049d5c:	c7 40 2c 6f 6d 20 73 	movl   $0x73206d6f,0x2c(%eax)
 8049d63:	c7 40 30 65 72 76 65 	movl   $0x65767265,0x30(%eax)
 8049d6a:	66 c7 40 34 72 00    	movw   $0x72,0x34(%eax)
 8049d70:	89 2c 24             	mov    %ebp,(%esp)
 8049d73:	e8 18 ec ff ff       	call   8048990 <close@plt>
 8049d78:	b8 ff ff ff ff       	mov    $0xffffffff,%eax
 8049d7d:	e9 07 02 00 00       	jmp    8049f89 <submitr+0x706>
 8049d82:	8d 84 24 60 60 00 00 	lea    0x6060(%esp),%eax
 8049d89:	89 44 24 10          	mov    %eax,0x10(%esp)
 8049d8d:	8d 44 24 4c          	lea    0x4c(%esp),%eax
 8049d91:	89 44 24 0c          	mov    %eax,0xc(%esp)
 8049d95:	8d 84 24 60 40 00 00 	lea    0x4060(%esp),%eax
 8049d9c:	89 44 24 08          	mov    %eax,0x8(%esp)
 8049da0:	c7 44 24 04 fb ac 04 	movl   $0x804acfb,0x4(%esp)
 8049da7:	08 
 8049da8:	8d 44 24 60          	lea    0x60(%esp),%eax
 8049dac:	89 04 24             	mov    %eax,(%esp)
 8049daf:	e8 4c eb ff ff       	call   8048900 <__isoc99_sscanf@plt>
 8049db4:	8b 44 24 4c          	mov    0x4c(%esp),%eax
 8049db8:	3d c8 00 00 00       	cmp    $0xc8,%eax
 8049dbd:	0f 84 cb 00 00 00    	je     8049e8e <submitr+0x60b>
 8049dc3:	8d 94 24 60 60 00 00 	lea    0x6060(%esp),%edx
 8049dca:	89 54 24 14          	mov    %edx,0x14(%esp)
 8049dce:	89 44 24 10          	mov    %eax,0x10(%esp)
 8049dd2:	c7 44 24 0c 0c ac 04 	movl   $0x804ac0c,0xc(%esp)
 8049dd9:	08 
 8049dda:	c7 44 24 08 ff ff ff 	movl   $0xffffffff,0x8(%esp)
 8049de1:	ff 
 8049de2:	c7 44 24 04 01 00 00 	movl   $0x1,0x4(%esp)
 8049de9:	00 
 8049dea:	8b 44 24 34          	mov    0x34(%esp),%eax
 8049dee:	89 04 24             	mov    %eax,(%esp)
 8049df1:	e8 ba eb ff ff       	call   80489b0 <__sprintf_chk@plt>
 8049df6:	89 2c 24             	mov    %ebp,(%esp)
 8049df9:	e8 92 eb ff ff       	call   8048990 <close@plt>
 8049dfe:	b8 ff ff ff ff       	mov    $0xffffffff,%eax
 8049e03:	e9 81 01 00 00       	jmp    8049f89 <submitr+0x706>
 8049e08:	b9 00 20 00 00       	mov    $0x2000,%ecx
 8049e0d:	8d 54 24 60          	lea    0x60(%esp),%edx
 8049e11:	8d 84 24 60 80 00 00 	lea    0x8060(%esp),%eax
 8049e18:	e8 57 f9 ff ff       	call   8049774 <rio_readlineb>
 8049e1d:	85 c0                	test   %eax,%eax
 8049e1f:	7f 6d                	jg     8049e8e <submitr+0x60b>
 8049e21:	8b 44 24 34          	mov    0x34(%esp),%eax
 8049e25:	c7 00 45 72 72 6f    	movl   $0x6f727245,(%eax)
 8049e2b:	c7 40 04 72 3a 20 43 	movl   $0x43203a72,0x4(%eax)
 8049e32:	c7 40 08 6c 69 65 6e 	movl   $0x6e65696c,0x8(%eax)
 8049e39:	c7 40 0c 74 20 75 6e 	movl   $0x6e752074,0xc(%eax)
 8049e40:	c7 40 10 61 62 6c 65 	movl   $0x656c6261,0x10(%eax)
 8049e47:	c7 40 14 20 74 6f 20 	movl   $0x206f7420,0x14(%eax)
 8049e4e:	c7 40 18 72 65 61 64 	movl   $0x64616572,0x18(%eax)
 8049e55:	c7 40 1c 20 68 65 61 	movl   $0x61656820,0x1c(%eax)
 8049e5c:	c7 40 20 64 65 72 73 	movl   $0x73726564,0x20(%eax)
 8049e63:	c7 40 24 20 66 72 6f 	movl   $0x6f726620,0x24(%eax)
 8049e6a:	c7 40 28 6d 20 73 65 	movl   $0x6573206d,0x28(%eax)
 8049e71:	c7 40 2c 72 76 65 72 	movl   $0x72657672,0x2c(%eax)
 8049e78:	c6 40 30 00          	movb   $0x0,0x30(%eax)
 8049e7c:	89 2c 24             	mov    %ebp,(%esp)
 8049e7f:	e8 0c eb ff ff       	call   8048990 <close@plt>
 8049e84:	b8 ff ff ff ff       	mov    $0xffffffff,%eax
 8049e89:	e9 fb 00 00 00       	jmp    8049f89 <submitr+0x706>
 8049e8e:	80 7c 24 60 0d       	cmpb   $0xd,0x60(%esp)
 8049e93:	0f 85 6f ff ff ff    	jne    8049e08 <submitr+0x585>
 8049e99:	80 7c 24 61 0a       	cmpb   $0xa,0x61(%esp)
 8049e9e:	0f 85 64 ff ff ff    	jne    8049e08 <submitr+0x585>
 8049ea4:	80 7c 24 62 00       	cmpb   $0x0,0x62(%esp)
 8049ea9:	0f 85 59 ff ff ff    	jne    8049e08 <submitr+0x585>
 8049eaf:	b9 00 20 00 00       	mov    $0x2000,%ecx
 8049eb4:	8d 54 24 60          	lea    0x60(%esp),%edx
 8049eb8:	8d 84 24 60 80 00 00 	lea    0x8060(%esp),%eax
 8049ebf:	e8 b0 f8 ff ff       	call   8049774 <rio_readlineb>
 8049ec4:	85 c0                	test   %eax,%eax
 8049ec6:	7f 74                	jg     8049f3c <submitr+0x6b9>
 8049ec8:	8b 44 24 34          	mov    0x34(%esp),%eax
 8049ecc:	c7 00 45 72 72 6f    	movl   $0x6f727245,(%eax)
 8049ed2:	c7 40 04 72 3a 20 43 	movl   $0x43203a72,0x4(%eax)
 8049ed9:	c7 40 08 6c 69 65 6e 	movl   $0x6e65696c,0x8(%eax)
 8049ee0:	c7 40 0c 74 20 75 6e 	movl   $0x6e752074,0xc(%eax)
 8049ee7:	c7 40 10 61 62 6c 65 	movl   $0x656c6261,0x10(%eax)
 8049eee:	c7 40 14 20 74 6f 20 	movl   $0x206f7420,0x14(%eax)
 8049ef5:	c7 40 18 72 65 61 64 	movl   $0x64616572,0x18(%eax)
 8049efc:	c7 40 1c 20 73 74 61 	movl   $0x61747320,0x1c(%eax)
 8049f03:	c7 40 20 74 75 73 20 	movl   $0x20737574,0x20(%eax)
 8049f0a:	c7 40 24 6d 65 73 73 	movl   $0x7373656d,0x24(%eax)
 8049f11:	c7 40 28 61 67 65 20 	movl   $0x20656761,0x28(%eax)
 8049f18:	c7 40 2c 66 72 6f 6d 	movl   $0x6d6f7266,0x2c(%eax)
 8049f1f:	c7 40 30 20 73 65 72 	movl   $0x72657320,0x30(%eax)
 8049f26:	c7 40 34 76 65 72 00 	movl   $0x726576,0x34(%eax)
 8049f2d:	89 2c 24             	mov    %ebp,(%esp)
 8049f30:	e8 5b ea ff ff       	call   8048990 <close@plt>
 8049f35:	b8 ff ff ff ff       	mov    $0xffffffff,%eax
 8049f3a:	eb 4d                	jmp    8049f89 <submitr+0x706>
 8049f3c:	8d 44 24 60          	lea    0x60(%esp),%eax
 8049f40:	89 44 24 04          	mov    %eax,0x4(%esp)
 8049f44:	8b 74 24 34          	mov    0x34(%esp),%esi
 8049f48:	89 34 24             	mov    %esi,(%esp)
 8049f4b:	e8 f0 e8 ff ff       	call   8048840 <strcpy@plt>
 8049f50:	89 2c 24             	mov    %ebp,(%esp)
 8049f53:	e8 38 ea ff ff       	call   8048990 <close@plt>
 8049f58:	0f b6 06             	movzbl (%esi),%eax
 8049f5b:	ba 4f 00 00 00       	mov    $0x4f,%edx
 8049f60:	29 c2                	sub    %eax,%edx
 8049f62:	75 1b                	jne    8049f7f <submitr+0x6fc>
 8049f64:	8b 44 24 34          	mov    0x34(%esp),%eax
 8049f68:	0f b6 40 01          	movzbl 0x1(%eax),%eax
 8049f6c:	ba 4b 00 00 00       	mov    $0x4b,%edx
 8049f71:	29 c2                	sub    %eax,%edx
 8049f73:	75 0a                	jne    8049f7f <submitr+0x6fc>
 8049f75:	8b 44 24 34          	mov    0x34(%esp),%eax
 8049f79:	0f b6 50 02          	movzbl 0x2(%eax),%edx
 8049f7d:	f7 da                	neg    %edx
 8049f7f:	85 d2                	test   %edx,%edx
 8049f81:	0f 95 c0             	setne  %al
 8049f84:	0f b6 c0             	movzbl %al,%eax
 8049f87:	f7 d8                	neg    %eax
 8049f89:	8b 8c 24 6c a0 00 00 	mov    0xa06c(%esp),%ecx
 8049f90:	65 33 0d 14 00 00 00 	xor    %gs:0x14,%ecx
 8049f97:	0f 84 ef 00 00 00    	je     804a08c <submitr+0x809>
 8049f9d:	e9 e5 00 00 00       	jmp    804a087 <submitr+0x804>
 8049fa2:	8d 84 24 60 20 00 00 	lea    0x2060(%esp),%eax
 8049fa9:	89 44 24 1c          	mov    %eax,0x1c(%esp)
 8049fad:	8b 44 24 30          	mov    0x30(%esp),%eax
 8049fb1:	89 44 24 18          	mov    %eax,0x18(%esp)
 8049fb5:	8b 44 24 2c          	mov    0x2c(%esp),%eax
 8049fb9:	89 44 24 14          	mov    %eax,0x14(%esp)
 8049fbd:	8b 44 24 28          	mov    0x28(%esp),%eax
 8049fc1:	89 44 24 10          	mov    %eax,0x10(%esp)
 8049fc5:	c7 44 24 0c 3c ac 04 	movl   $0x804ac3c,0xc(%esp)
 8049fcc:	08 
 8049fcd:	c7 44 24 08 00 20 00 	movl   $0x2000,0x8(%esp)
 8049fd4:	00 
 8049fd5:	c7 44 24 04 01 00 00 	movl   $0x1,0x4(%esp)
 8049fdc:	00 
 8049fdd:	8d 7c 24 60          	lea    0x60(%esp),%edi
 8049fe1:	89 3c 24             	mov    %edi,(%esp)
 8049fe4:	e8 c7 e9 ff ff       	call   80489b0 <__sprintf_chk@plt>
 8049fe9:	b8 00 00 00 00       	mov    $0x0,%eax
 8049fee:	b9 ff ff ff ff       	mov    $0xffffffff,%ecx
 8049ff3:	f2 ae                	repnz scas %es:(%edi),%al
 8049ff5:	f7 d1                	not    %ecx
 8049ff7:	83 e9 01             	sub    $0x1,%ecx
 8049ffa:	89 cf                	mov    %ecx,%edi
 8049ffc:	0f 84 d1 fc ff ff    	je     8049cd3 <submitr+0x450>
 804a002:	89 cb                	mov    %ecx,%ebx
 804a004:	8d 74 24 60          	lea    0x60(%esp),%esi
 804a008:	e9 37 fc ff ff       	jmp    8049c44 <submitr+0x3c1>
 804a00d:	8b 4c 24 34          	mov    0x34(%esp),%ecx
 804a011:	89 cf                	mov    %ecx,%edi
 804a013:	be 88 ac 04 08       	mov    $0x804ac88,%esi
 804a018:	b8 43 00 00 00       	mov    $0x43,%eax
 804a01d:	f6 c1 01             	test   $0x1,%cl
 804a020:	74 16                	je     804a038 <submitr+0x7b5>
 804a022:	0f b6 05 88 ac 04 08 	movzbl 0x804ac88,%eax
 804a029:	88 01                	mov    %al,(%ecx)
 804a02b:	8d 79 01             	lea    0x1(%ecx),%edi
 804a02e:	be 89 ac 04 08       	mov    $0x804ac89,%esi
 804a033:	b8 42 00 00 00       	mov    $0x42,%eax
 804a038:	f7 c7 02 00 00 00    	test   $0x2,%edi
 804a03e:	74 0f                	je     804a04f <submitr+0x7cc>
 804a040:	0f b7 16             	movzwl (%esi),%edx
 804a043:	66 89 17             	mov    %dx,(%edi)
 804a046:	83 c7 02             	add    $0x2,%edi
 804a049:	83 c6 02             	add    $0x2,%esi
 804a04c:	83 e8 02             	sub    $0x2,%eax
 804a04f:	89 c1                	mov    %eax,%ecx
 804a051:	c1 e9 02             	shr    $0x2,%ecx
 804a054:	f3 a5                	rep movsl %ds:(%esi),%es:(%edi)
 804a056:	ba 00 00 00 00       	mov    $0x0,%edx
 804a05b:	a8 02                	test   $0x2,%al
 804a05d:	74 0b                	je     804a06a <submitr+0x7e7>
 804a05f:	0f b7 16             	movzwl (%esi),%edx
 804a062:	66 89 17             	mov    %dx,(%edi)
 804a065:	ba 02 00 00 00       	mov    $0x2,%edx
 804a06a:	a8 01                	test   $0x1,%al
 804a06c:	74 07                	je     804a075 <submitr+0x7f2>
 804a06e:	0f b6 04 16          	movzbl (%esi,%edx,1),%eax
 804a072:	88 04 17             	mov    %al,(%edi,%edx,1)
 804a075:	89 2c 24             	mov    %ebp,(%esp)
 804a078:	e8 13 e9 ff ff       	call   8048990 <close@plt>
 804a07d:	b8 ff ff ff ff       	mov    $0xffffffff,%eax
 804a082:	e9 02 ff ff ff       	jmp    8049f89 <submitr+0x706>
 804a087:	e8 a4 e7 ff ff       	call   8048830 <__stack_chk_fail@plt>
 804a08c:	81 c4 7c a0 00 00    	add    $0xa07c,%esp
 804a092:	5b                   	pop    %ebx
 804a093:	5e                   	pop    %esi
 804a094:	5f                   	pop    %edi
 804a095:	5d                   	pop    %ebp
 804a096:	c3                   	ret    

0804a097 <init_timeout>:
 804a097:	53                   	push   %ebx
 804a098:	83 ec 18             	sub    $0x18,%esp
 804a09b:	8b 5c 24 20          	mov    0x20(%esp),%ebx
 804a09f:	85 db                	test   %ebx,%ebx
 804a0a1:	74 26                	je     804a0c9 <init_timeout+0x32>
 804a0a3:	c7 44 24 04 40 97 04 	movl   $0x8049740,0x4(%esp)
 804a0aa:	08 
 804a0ab:	c7 04 24 0e 00 00 00 	movl   $0xe,(%esp)
 804a0b2:	e8 49 e7 ff ff       	call   8048800 <signal@plt>
 804a0b7:	85 db                	test   %ebx,%ebx
 804a0b9:	b8 00 00 00 00       	mov    $0x0,%eax
 804a0be:	0f 48 d8             	cmovs  %eax,%ebx
 804a0c1:	89 1c 24             	mov    %ebx,(%esp)
 804a0c4:	e8 57 e7 ff ff       	call   8048820 <alarm@plt>
 804a0c9:	83 c4 18             	add    $0x18,%esp
 804a0cc:	5b                   	pop    %ebx
 804a0cd:	c3                   	ret    

0804a0ce <init_driver>:
 804a0ce:	57                   	push   %edi
 804a0cf:	56                   	push   %esi
 804a0d0:	53                   	push   %ebx
 804a0d1:	83 ec 40             	sub    $0x40,%esp
 804a0d4:	8b 74 24 50          	mov    0x50(%esp),%esi
 804a0d8:	65 a1 14 00 00 00    	mov    %gs:0x14,%eax
 804a0de:	89 44 24 3c          	mov    %eax,0x3c(%esp)
 804a0e2:	31 c0                	xor    %eax,%eax
 804a0e4:	c7 44 24 04 01 00 00 	movl   $0x1,0x4(%esp)
 804a0eb:	00 
 804a0ec:	c7 04 24 0d 00 00 00 	movl   $0xd,(%esp)
 804a0f3:	e8 08 e7 ff ff       	call   8048800 <signal@plt>
 804a0f8:	c7 44 24 04 01 00 00 	movl   $0x1,0x4(%esp)
 804a0ff:	00 
 804a100:	c7 04 24 1d 00 00 00 	movl   $0x1d,(%esp)
 804a107:	e8 f4 e6 ff ff       	call   8048800 <signal@plt>
 804a10c:	c7 44 24 04 01 00 00 	movl   $0x1,0x4(%esp)
 804a113:	00 
 804a114:	c7 04 24 1d 00 00 00 	movl   $0x1d,(%esp)
 804a11b:	e8 e0 e6 ff ff       	call   8048800 <signal@plt>
 804a120:	c7 44 24 08 00 00 00 	movl   $0x0,0x8(%esp)
 804a127:	00 
 804a128:	c7 44 24 04 01 00 00 	movl   $0x1,0x4(%esp)
 804a12f:	00 
 804a130:	c7 04 24 02 00 00 00 	movl   $0x2,(%esp)
 804a137:	e8 04 e8 ff ff       	call   8048940 <socket@plt>
 804a13c:	89 c3                	mov    %eax,%ebx
 804a13e:	85 c0                	test   %eax,%eax
 804a140:	79 4e                	jns    804a190 <init_driver+0xc2>
 804a142:	c7 06 45 72 72 6f    	movl   $0x6f727245,(%esi)
 804a148:	c7 46 04 72 3a 20 43 	movl   $0x43203a72,0x4(%esi)
 804a14f:	c7 46 08 6c 69 65 6e 	movl   $0x6e65696c,0x8(%esi)
 804a156:	c7 46 0c 74 20 75 6e 	movl   $0x6e752074,0xc(%esi)
 804a15d:	c7 46 10 61 62 6c 65 	movl   $0x656c6261,0x10(%esi)
 804a164:	c7 46 14 20 74 6f 20 	movl   $0x206f7420,0x14(%esi)
 804a16b:	c7 46 18 63 72 65 61 	movl   $0x61657263,0x18(%esi)
 804a172:	c7 46 1c 74 65 20 73 	movl   $0x73206574,0x1c(%esi)
 804a179:	c7 46 20 6f 63 6b 65 	movl   $0x656b636f,0x20(%esi)
 804a180:	66 c7 46 24 74 00    	movw   $0x74,0x24(%esi)
 804a186:	b8 ff ff ff ff       	mov    $0xffffffff,%eax
 804a18b:	e9 33 01 00 00       	jmp    804a2c3 <init_driver+0x1f5>
 804a190:	c7 04 24 d1 ab 04 08 	movl   $0x804abd1,(%esp)
 804a197:	e8 c4 e7 ff ff       	call   8048960 <gethostbyname@plt>
 804a19c:	85 c0                	test   %eax,%eax
 804a19e:	75 68                	jne    804a208 <init_driver+0x13a>
 804a1a0:	c7 06 45 72 72 6f    	movl   $0x6f727245,(%esi)
 804a1a6:	c7 46 04 72 3a 20 44 	movl   $0x44203a72,0x4(%esi)
 804a1ad:	c7 46 08 4e 53 20 69 	movl   $0x6920534e,0x8(%esi)
 804a1b4:	c7 46 0c 73 20 75 6e 	movl   $0x6e752073,0xc(%esi)
 804a1bb:	c7 46 10 61 62 6c 65 	movl   $0x656c6261,0x10(%esi)
 804a1c2:	c7 46 14 20 74 6f 20 	movl   $0x206f7420,0x14(%esi)
 804a1c9:	c7 46 18 72 65 73 6f 	movl   $0x6f736572,0x18(%esi)
 804a1d0:	c7 46 1c 6c 76 65 20 	movl   $0x2065766c,0x1c(%esi)
 804a1d7:	c7 46 20 73 65 72 76 	movl   $0x76726573,0x20(%esi)
 804a1de:	c7 46 24 65 72 20 61 	movl   $0x61207265,0x24(%esi)
 804a1e5:	c7 46 28 64 64 72 65 	movl   $0x65726464,0x28(%esi)
 804a1ec:	66 c7 46 2c 73 73    	movw   $0x7373,0x2c(%esi)
 804a1f2:	c6 46 2e 00          	movb   $0x0,0x2e(%esi)
 804a1f6:	89 1c 24             	mov    %ebx,(%esp)
 804a1f9:	e8 92 e7 ff ff       	call   8048990 <close@plt>
 804a1fe:	b8 ff ff ff ff       	mov    $0xffffffff,%eax
 804a203:	e9 bb 00 00 00       	jmp    804a2c3 <init_driver+0x1f5>
 804a208:	8d 7c 24 2c          	lea    0x2c(%esp),%edi
 804a20c:	c7 44 24 2c 00 00 00 	movl   $0x0,0x2c(%esp)
 804a213:	00 
 804a214:	c7 44 24 30 00 00 00 	movl   $0x0,0x30(%esp)
 804a21b:	00 
 804a21c:	c7 44 24 34 00 00 00 	movl   $0x0,0x34(%esp)
 804a223:	00 
 804a224:	c7 44 24 38 00 00 00 	movl   $0x0,0x38(%esp)
 804a22b:	00 
 804a22c:	66 c7 44 24 2c 02 00 	movw   $0x2,0x2c(%esp)
 804a233:	c7 44 24 0c 0c 00 00 	movl   $0xc,0xc(%esp)
 804a23a:	00 
 804a23b:	8b 50 0c             	mov    0xc(%eax),%edx
 804a23e:	89 54 24 08          	mov    %edx,0x8(%esp)
 804a242:	8b 40 10             	mov    0x10(%eax),%eax
 804a245:	8b 00                	mov    (%eax),%eax
 804a247:	89 44 24 04          	mov    %eax,0x4(%esp)
 804a24b:	8d 44 24 30          	lea    0x30(%esp),%eax
 804a24f:	89 04 24             	mov    %eax,(%esp)
 804a252:	e8 39 e6 ff ff       	call   8048890 <__memmove_chk@plt>
 804a257:	66 c7 44 24 2e 45 30 	movw   $0x3045,0x2e(%esp)
 804a25e:	c7 44 24 08 10 00 00 	movl   $0x10,0x8(%esp)
 804a265:	00 
 804a266:	89 7c 24 04          	mov    %edi,0x4(%esp)
 804a26a:	89 1c 24             	mov    %ebx,(%esp)
 804a26d:	e8 0e e7 ff ff       	call   8048980 <connect@plt>
 804a272:	85 c0                	test   %eax,%eax
 804a274:	79 37                	jns    804a2ad <init_driver+0x1df>
 804a276:	c7 44 24 10 d1 ab 04 	movl   $0x804abd1,0x10(%esp)
 804a27d:	08 
 804a27e:	c7 44 24 0c cc ac 04 	movl   $0x804accc,0xc(%esp)
 804a285:	08 
 804a286:	c7 44 24 08 ff ff ff 	movl   $0xffffffff,0x8(%esp)
 804a28d:	ff 
 804a28e:	c7 44 24 04 01 00 00 	movl   $0x1,0x4(%esp)
 804a295:	00 
 804a296:	89 34 24             	mov    %esi,(%esp)
 804a299:	e8 12 e7 ff ff       	call   80489b0 <__sprintf_chk@plt>
 804a29e:	89 1c 24             	mov    %ebx,(%esp)
 804a2a1:	e8 ea e6 ff ff       	call   8048990 <close@plt>
 804a2a6:	b8 ff ff ff ff       	mov    $0xffffffff,%eax
 804a2ab:	eb 16                	jmp    804a2c3 <init_driver+0x1f5>
 804a2ad:	89 1c 24             	mov    %ebx,(%esp)
 804a2b0:	e8 db e6 ff ff       	call   8048990 <close@plt>
 804a2b5:	66 c7 06 4f 4b       	movw   $0x4b4f,(%esi)
 804a2ba:	c6 46 02 00          	movb   $0x0,0x2(%esi)
 804a2be:	b8 00 00 00 00       	mov    $0x0,%eax
 804a2c3:	8b 4c 24 3c          	mov    0x3c(%esp),%ecx
 804a2c7:	65 33 0d 14 00 00 00 	xor    %gs:0x14,%ecx
 804a2ce:	74 05                	je     804a2d5 <init_driver+0x207>
 804a2d0:	e8 5b e5 ff ff       	call   8048830 <__stack_chk_fail@plt>
 804a2d5:	83 c4 40             	add    $0x40,%esp
 804a2d8:	5b                   	pop    %ebx
 804a2d9:	5e                   	pop    %esi
 804a2da:	5f                   	pop    %edi
 804a2db:	c3                   	ret    

0804a2dc <driver_post>:
 804a2dc:	53                   	push   %ebx
 804a2dd:	83 ec 28             	sub    $0x28,%esp
 804a2e0:	8b 44 24 30          	mov    0x30(%esp),%eax
 804a2e4:	8b 5c 24 3c          	mov    0x3c(%esp),%ebx
 804a2e8:	83 7c 24 38 00       	cmpl   $0x0,0x38(%esp)
 804a2ed:	74 2c                	je     804a31b <driver_post+0x3f>
 804a2ef:	8b 44 24 34          	mov    0x34(%esp),%eax
 804a2f3:	89 44 24 08          	mov    %eax,0x8(%esp)
 804a2f7:	c7 44 24 04 0c ad 04 	movl   $0x804ad0c,0x4(%esp)
 804a2fe:	08 
 804a2ff:	c7 04 24 01 00 00 00 	movl   $0x1,(%esp)
 804a306:	e8 25 e6 ff ff       	call   8048930 <__printf_chk@plt>
 804a30b:	66 c7 03 4f 4b       	movw   $0x4b4f,(%ebx)
 804a310:	c6 43 02 00          	movb   $0x0,0x2(%ebx)
 804a314:	b8 00 00 00 00       	mov    $0x0,%eax
 804a319:	eb 4d                	jmp    804a368 <driver_post+0x8c>
 804a31b:	85 c0                	test   %eax,%eax
 804a31d:	74 3b                	je     804a35a <driver_post+0x7e>
 804a31f:	80 38 00             	cmpb   $0x0,(%eax)
 804a322:	74 36                	je     804a35a <driver_post+0x7e>
 804a324:	89 5c 24 18          	mov    %ebx,0x18(%esp)
 804a328:	8b 54 24 34          	mov    0x34(%esp),%edx
 804a32c:	89 54 24 14          	mov    %edx,0x14(%esp)
 804a330:	c7 44 24 10 23 ad 04 	movl   $0x804ad23,0x10(%esp)
 804a337:	08 
 804a338:	89 44 24 0c          	mov    %eax,0xc(%esp)
 804a33c:	c7 44 24 08 2a ad 04 	movl   $0x804ad2a,0x8(%esp)
 804a343:	08 
 804a344:	c7 44 24 04 30 45 00 	movl   $0x4530,0x4(%esp)
 804a34b:	00 
 804a34c:	c7 04 24 d1 ab 04 08 	movl   $0x804abd1,(%esp)
 804a353:	e8 2b f5 ff ff       	call   8049883 <submitr>
 804a358:	eb 0e                	jmp    804a368 <driver_post+0x8c>
 804a35a:	66 c7 03 4f 4b       	movw   $0x4b4f,(%ebx)
 804a35f:	c6 43 02 00          	movb   $0x0,0x2(%ebx)
 804a363:	b8 00 00 00 00       	mov    $0x0,%eax
 804a368:	83 c4 28             	add    $0x28,%esp
 804a36b:	5b                   	pop    %ebx
 804a36c:	c3                   	ret    
 804a36d:	66 90                	xchg   %ax,%ax
 804a36f:	90                   	nop

0804a370 <__libc_csu_init>:
 804a370:	55                   	push   %ebp
 804a371:	57                   	push   %edi
 804a372:	31 ff                	xor    %edi,%edi
 804a374:	56                   	push   %esi
 804a375:	53                   	push   %ebx
 804a376:	e8 75 e6 ff ff       	call   80489f0 <__x86.get_pc_thunk.bx>
 804a37b:	81 c3 85 2c 00 00    	add    $0x2c85,%ebx
 804a381:	83 ec 1c             	sub    $0x1c,%esp
 804a384:	8b 6c 24 30          	mov    0x30(%esp),%ebp
 804a388:	8d b3 0c ff ff ff    	lea    -0xf4(%ebx),%esi
 804a38e:	e8 fd e3 ff ff       	call   8048790 <_init>
 804a393:	8d 83 08 ff ff ff    	lea    -0xf8(%ebx),%eax
 804a399:	29 c6                	sub    %eax,%esi
 804a39b:	c1 fe 02             	sar    $0x2,%esi
 804a39e:	85 f6                	test   %esi,%esi
 804a3a0:	74 27                	je     804a3c9 <__libc_csu_init+0x59>
 804a3a2:	8d b6 00 00 00 00    	lea    0x0(%esi),%esi
 804a3a8:	8b 44 24 38          	mov    0x38(%esp),%eax
 804a3ac:	89 2c 24             	mov    %ebp,(%esp)
 804a3af:	89 44 24 08          	mov    %eax,0x8(%esp)
 804a3b3:	8b 44 24 34          	mov    0x34(%esp),%eax
 804a3b7:	89 44 24 04          	mov    %eax,0x4(%esp)
 804a3bb:	ff 94 bb 08 ff ff ff 	call   *-0xf8(%ebx,%edi,4)
 804a3c2:	83 c7 01             	add    $0x1,%edi
 804a3c5:	39 f7                	cmp    %esi,%edi
 804a3c7:	75 df                	jne    804a3a8 <__libc_csu_init+0x38>
 804a3c9:	83 c4 1c             	add    $0x1c,%esp
 804a3cc:	5b                   	pop    %ebx
 804a3cd:	5e                   	pop    %esi
 804a3ce:	5f                   	pop    %edi
 804a3cf:	5d                   	pop    %ebp
 804a3d0:	c3                   	ret    
 804a3d1:	eb 0d                	jmp    804a3e0 <__libc_csu_fini>
 804a3d3:	90                   	nop
 804a3d4:	90                   	nop
 804a3d5:	90                   	nop
 804a3d6:	90                   	nop
 804a3d7:	90                   	nop
 804a3d8:	90                   	nop
 804a3d9:	90                   	nop
 804a3da:	90                   	nop
 804a3db:	90                   	nop
 804a3dc:	90                   	nop
 804a3dd:	90                   	nop
 804a3de:	90                   	nop
 804a3df:	90                   	nop

0804a3e0 <__libc_csu_fini>:
 804a3e0:	f3 c3                	repz ret 

Disassembly of section .fini:

0804a3e4 <_fini>:
 804a3e4:	53                   	push   %ebx
 804a3e5:	83 ec 08             	sub    $0x8,%esp
 804a3e8:	e8 03 e6 ff ff       	call   80489f0 <__x86.get_pc_thunk.bx>
 804a3ed:	81 c3 13 2c 00 00    	add    $0x2c13,%ebx
 804a3f3:	83 c4 08             	add    $0x8,%esp
 804a3f6:	5b                   	pop    %ebx
 804a3f7:	c3                   	ret    
